{
  "main_library": {
    "exported_symbols": [
      {
        "data": {
          "global": [
            "__ZTVN5oatpp7network6ServerE",
            "__ZTIN5oatpp3web8protocol4http8encoding22ChunkedEncoderProviderE",
            "__ZTSN5oatpp4base9CountableE",
            "__ZN5oatpp3web8protocol4http6Status8CODE_207E",
            "__ZN5oatpp4data7mapping4type7__class6UInt328CLASS_IDE",
            "__ZTVN5oatpp6parser4json10BeautifierE",
            "__ZTVN5oatpp7network3tcp6server18ConnectionProvider18ExtendedConnectionE",
            "__ZN5oatpp3web8protocol4http6Status8CODE_301E",
            "__ZN5oatpp3web8protocol4http6Status8CODE_413E",
            "__ZTVN5oatpp4data6buffer8IOBufferE",
            "__ZTIN5oatpp6parser4json10BeautifierE",
            "__ZN5oatpp3web8protocol4http6Header10CONNECTIONE",
            "__ZN5oatpp3web8protocol4http6Header15ACCEPT_ENCODINGE",
            "__ZN5oatpp3web3url7mapping7Pattern4Part16FUNCTION_ANY_ENDE",
            "__ZN5oatpp3web8protocol4http6Status8CODE_307E",
            "__ZN5oatpp3web8protocol4http6Header7UPGRADEE",
            "__ZTIN5oatpp4data6stream25DefaultInitializedContextE",
            "__ZN5oatpp3web8protocol4http6Header5Value21CONNECTION_KEEP_ALIVEE",
            "__ZTIN5oatpp3web8protocol4http8incoming17SimpleBodyDecoderE",
            "__ZN5oatpp8encoding3Hex14ALPHABET_UPPERE",
            "__ZN5oatpp3web8protocol4http6Header5Value25TRANSFER_ENCODING_CHUNKEDE",
            "__ZTIN5oatpp3web8protocol4http8encoding22ChunkedDecoderProviderE",
            "__ZN5oatpp3web8protocol4http6Header5Value18CONNECTION_UPGRADEE",
            "__ZN5oatpp3web8protocol4http6Status8CODE_412E",
            "__ZN5oatpp3web8protocol4http6Status8CODE_400E",
            "__ZTVN5oatpp7network3tcp10ConnectionE",
            "__ZTSN5oatpp4base13DefaultLoggerE",
            "__ZN5oatpp3web8protocol4http6Status8CODE_451E",
            "__ZN5oatpp4data7mapping4type7__class6String8CLASS_IDE",
            "__ZN5oatpp3web8protocol4http6Status8CODE_416E",
            "__ZN5oatpp7network3tcp6server18ConnectionProvider18ExtendedConnection21PROPERTY_PEER_ADDRESSE",
            "__ZN5oatpp4data7mapping4type7__class6UInt168CLASS_IDE",
            "__ZN5oatpp4data7mapping4type7__class14AbstractObject8CLASS_IDE",
            "__ZTIN5oatpp7network3tcp6server18ConnectionProvider21ConnectionInvalidatorE",
            "__ZN5oatpp7network6Server11STATUS_DONEE",
            "__ZTIN5oatpp3web8protocol4http8outgoing10BufferBodyE",
            "__ZN5oatpp6parser5Caret18ERROR_NO_CLOSE_TAGE",
            "__ZN5oatpp6parser5Caret19ERROR_INVALID_FLOATE",
            "__ZTVN5oatpp3web8protocol4http8encoding22ChunkedDecoderProviderE",
            "__ZN5oatpp3web8protocol4http6Header16CONTENT_ENCODINGE",
            "__ZN5oatpp4data6buffer8IOBuffer11BUFFER_SIZEE",
            "__ZTIN5oatpp4data6stream18BufferOutputStreamE",
            "__ZN5oatpp3web8protocol4http6Status8CODE_203E",
            "__ZTIN5oatpp4data6buffer8IOBufferE",
            "__ZN5oatpp3web8protocol4http6Header5Value10USER_AGENTE",
            "__ZN5oatpp3web8protocol4http6Status8CODE_502E",
            "__ZN5oatpp3web8protocol4http6Status8CODE_402E",
            "__ZN5oatpp3web3url7mapping7Pattern4Part14FUNCTION_CONSTE",
            "__ZN5oatpp3web8protocol4http6Header14CONTENT_LENGTHE",
            "__ZN5oatpp3web8protocol4http6Status8CODE_428E",
            "__ZN5oatpp7network6Server15STATUS_STOPPINGE",
            "__ZN5oatpp3web8protocol4http6Status8CODE_202E",
            "__ZTSN5oatpp3web8protocol4http8encoding22ChunkedDecoderProviderE",
            "__ZN5oatpp3web8protocol4http6Status8CODE_100E",
            "__ZTIN5oatpp3web6server21HttpConnectionHandlerE",
            "__ZN5oatpp4base11Environment14m_objectsCountE",
            "__ZN5oatpp4data7mapping4type7__class5Int328CLASS_IDE",
            "__ZN5oatpp3web8protocol4http6Status8CODE_449E",
            "__ZTVN5oatpp7network3tcp6server18ConnectionProviderE",
            "__ZN5oatpp7network6Server15STATUS_STARTINGE",
            "__ZN5oatpp3web8protocol4http6Status8CODE_401E",
            "__ZN5oatpp3web8protocol4http6Header5Value19EXPECT_100_CONTINUEE",
            "__ZTSN5oatpp4data6stream25DefaultInitializedContextE",
            "__ZTVN5oatpp3web6server7handler12ErrorHandlerE",
            "__ZTVN5oatpp4data6stream25OutputStreamBufferedProxyE",
            "__ZN5oatpp7network6Server14STATUS_CREATEDE",
            "__ZN5oatpp3web8protocol4http6Status8CODE_205E",
            "__ZTSN5oatpp6parser4json10BeautifierE",
            "__ZN5oatpp3web8protocol4http6Status8CODE_411E",
            "__ZTVN5oatpp4data6stream18BufferOutputStreamE",
            "__ZTVN5oatpp4data6stream30StatelessDataTransferProcessorE",
            "__ZN5oatpp4base11Environment16m_objectsCreatedE",
            "__ZN5oatpp4data7mapping4type7__class12AbstractEnum8CLASS_IDE",
            "__ZN5oatpp3web8protocol4http6Status8CODE_507E",
            "__ZTIN5oatpp4base13DefaultLoggerE",
            "__ZTIN5oatpp3web6server13HttpProcessor4TaskE",
            "__ZTSN5oatpp7network3tcp10ConnectionE",
            "__ZN5oatpp3web8protocol4http8incoming17SimpleBodyDecoder21RESPONSE_100_CONTINUEE",
            "__ZN5oatpp4data7mapping4type7__class4Int88CLASS_IDE",
            "__ZN5oatpp3web8protocol4http6Status8CODE_403E",
            "__ZTSN5oatpp3web6server21HttpConnectionHandlerE",
            "__ZN5oatpp3web8protocol4http6Status8CODE_415E",
            "__ZN5oatpp3web8protocol4http6Status8CODE_510E",
            "__ZN5oatpp3web8protocol4http6Status8CODE_304E",
            "__ZTSN5oatpp3web8protocol4http8outgoing10BufferBodyE",
            "__ZTVN5oatpp5async17AbstractCoroutineE",
            "__ZTVN5oatpp3web6server13HttpProcessor4TaskE",
            "__ZTSN5oatpp4data6stream17BufferInputStreamE",
            "__ZN5oatpp3web8protocol4http6Header12CORS_MAX_AGEE",
            "__ZN5oatpp4data7mapping4type7__class5Int168CLASS_IDE",
            "__ZTVN5oatpp3web6server13HttpProcessor9CoroutineE",
            "__ZN5oatpp4data7mapping4type7__class3Any8CLASS_IDE",
            "__ZN5oatpp3web8protocol4http6Header12CORS_HEADERSE",
            "__ZTSN5oatpp4data6stream25OutputStreamBufferedProxyE",
            "__ZN5oatpp3web8protocol4http6Status8CODE_303E",
            "__ZN5oatpp3web8protocol4http6Status8CODE_408E",
            "__ZN5oatpp3web8protocol4http6Header13CONTENT_RANGEE",
            "__ZTVN5oatpp5async15CoroutineHandleE",
            "__ZTSN5oatpp3web8protocol4http8encoding14EncoderChunkedE",
            "__ZTTN5oatpp7network3tcp6server18ConnectionProviderE",
            "__ZN5oatpp4data7mapping4type7__class20AbstractUnorderedMap8CLASS_IDE",
            "__ZTIN5oatpp3web6server7handler12ErrorHandlerE",
            "__ZN5oatpp3web8protocol4http6Status8CODE_226E",
            "__ZTVN5oatpp7network3tcp6server18ConnectionProvider21ConnectionInvalidatorE",
            "__ZN5oatpp3web8protocol4http6Header12CORS_METHODSE",
            "__ZTVN5oatpp3web8protocol4http8encoding14DecoderChunkedE",
            "__ZN5oatpp3web8protocol4http6Status8CODE_414E",
            "__ZN5oatpp3web8protocol4http6Status8CODE_206E",
            "__ZTIN5oatpp4data6stream17BufferInputStreamE",
            "__ZN5oatpp3web8protocol4http6Status8CODE_501E",
            "__ZN5oatpp3web8protocol4http6Header5Value16CONNECTION_CLOSEE",
            "__ZN5oatpp3web8protocol4http6Header5RANGEE",
            "__ZN5oatpp3web8protocol4http6Header4HOSTE",
            "__ZTVN5oatpp3web8protocol4http8encoding22ChunkedEncoderProviderE",
            "__ZTSN5oatpp7network3tcp6server18ConnectionProviderE",
            "__ZTSN5oatpp3web6server7handler12ErrorHandlerE",
            "__ZN5oatpp7network3tcp10Connection15DEFAULT_CONTEXTE",
            "__ZTIN5oatpp5async17AbstractCoroutineE",
            "__ZN5oatpp4data6stream18BufferOutputStream15DEFAULT_CONTEXTE",
            "__ZN5oatpp6parser5Caret17ERROR_NO_OPEN_TAGE",
            "__ZN5oatpp3web8protocol4http6Header6ACCEPTE",
            "__ZN5oatpp4data7mapping4type7__class14AbstractVector8CLASS_IDE",
            "__ZN5oatpp4data7mapping4type7__class4Void8CLASS_IDE",
            "__ZTSN5oatpp5async15CoroutineHandleE",
            "__ZN5oatpp3web8protocol4http6Header13AUTHORIZATIONE",
            "__ZN5oatpp3web8protocol4http6Status8CODE_511E",
            "__ZTIN5oatpp6parser5CaretE",
            "__ZN5oatpp3web8protocol4http6Status8CODE_424E",
            "__ZN5oatpp3web8protocol4http6Header6SERVERE",
            "__ZN5oatpp3web8protocol4http6Status8CODE_305E",
            "__ZN5oatpp3web8protocol4http6Header12CONTENT_TYPEE",
            "__ZN5oatpp3web8protocol4http6Status8CODE_201E",
            "__ZN5oatpp3web8protocol4http6Header11CORS_ORIGINE",
            "__ZTIN5oatpp3web6server7handler19DefaultErrorHandlerE",
            "__ZN5oatpp7network3tcp6server18ConnectionProvider18ExtendedConnection28PROPERTY_PEER_ADDRESS_FORMATE",
            "__ZTIN5oatpp4data6stream25OutputStreamBufferedProxyE",
            "__ZTVN5oatpp4data6buffer18ProcessingPipelineE",
            "__ZN5oatpp7network18ConnectionProvider13PROPERTY_HOSTE",
            "__ZN5oatpp6parser5Caret21ERROR_INVALID_BOOLEANE",
            "__ZN5oatpp6parser5Caret19ERROR_NAME_EXPECTEDE",
            "__ZN5oatpp3web8protocol4http6Status8CODE_102E",
            "__ZTSN5oatpp4data6stream24InputStreamBufferedProxyE",
            "__ZN5oatpp3web8protocol4http6Status8CODE_406E",
            "__ZN5oatpp3web8protocol4http6Status8CODE_444E",
            "__ZN5oatpp4data7mapping4type7__class7Boolean8CLASS_IDE",
            "__ZN5oatpp4data7mapping4type7__class5UInt88CLASS_IDE",
            "__ZN5oatpp3web8protocol4http6Status8CODE_417E",
            "__ZTSN5oatpp3web6server13HttpProcessor9CoroutineE",
            "__ZN5oatpp7network6Server14STATUS_RUNNINGE",
            "__ZTIN5oatpp6parser4json7mapping12ObjectMapperE",
            "__ZTSN5oatpp7network6ServerE",
            "__ZTSN5oatpp3web8protocol4http8encoding14DecoderChunkedE",
            "__ZN5oatpp6parser5Caret21ERROR_INVALID_INTEGERE",
            "__ZN5oatpp3web8protocol4http6Status8CODE_506E",
            "__ZTIN5oatpp5async15CoroutineHandleE",
            "__ZN5oatpp3web8protocol4http6Header5Value6SERVERE",
            "__ZN5oatpp3web8protocol4http6Header17TRANSFER_ENCODINGE",
            "__ZTVN5oatpp3web8protocol4http8incoming17SimpleBodyDecoderE",
            "__ZN5oatpp3web8protocol4http6Status8CODE_300E",
            "__ZN5oatpp7network3tcp6server18ConnectionProvider18ExtendedConnection18PROPERTY_PEER_PORTE",
            "_classes",
            "__ZN5oatpp4data7mapping4type7__class12AbstractList8CLASS_IDE",
            "__ZN5oatpp3web8protocol4http6Status8CODE_302E",
            "__ZTSN5oatpp3web6server13HttpProcessor4TaskE",
            "__ZN5oatpp3web8protocol4http6Status8CODE_423E",
            "__ZN5oatpp4data6stream30StatelessDataTransferProcessor8INSTANCEE",
            "__ZN5oatpp5async6Action9TIME_ZEROE",
            "__ZN5oatpp3web8protocol4http6Status8CODE_407E",
            "__ZTVN5oatpp4data6stream24InputStreamBufferedProxyE",
            "__ZN5oatpp4data7mapping4type7__class20AbstractUnorderedSet8CLASS_IDE",
            "__ZTSN5oatpp3web8protocol4http8incoming17SimpleBodyDecoderE",
            "__ZTSN5oatpp6parser5CaretE",
            "__ZN5oatpp3web8protocol4http12ContentRange10UNIT_BYTESE",
            "__ZN5oatpp3web8protocol4http6Status8CODE_434E",
            "__ZN5oatpp7network18ConnectionProvider13PROPERTY_PORTE",
            "__ZTIN5oatpp4data6stream24InputStreamBufferedProxyE",
            "__ZTIN5oatpp4data6stream30StatelessDataTransferProcessorE",
            "__ZTSN5oatpp6parser4json7mapping12ObjectMapperE",
            "__ZN5oatpp4data6stream17BufferInputStream15DEFAULT_CONTEXTE",
            "__ZN5oatpp4data7mapping4type7__class7Float648CLASS_IDE",
            "__ZN5oatpp3web8protocol4http6Status8CODE_426E",
            "__ZN5oatpp3web8protocol4http6Status8CODE_429E",
            "__ZTVN5oatpp3web8protocol4http8outgoing10BufferBodyE",
            "__ZN5oatpp3web8protocol4http6Status8CODE_404E",
            "__ZN5oatpp3web8protocol4http6Status8CODE_509E",
            "__ZN5oatpp3web8protocol4http6Status8CODE_204E",
            "__ZTVN5oatpp4base9CountableE",
            "__ZTIN5oatpp4base9CountableE",
            "__ZN5oatpp3web8protocol4http6Status8CODE_306E",
            "__ZTIN5oatpp7network3tcp10ConnectionE",
            "__ZN5oatpp4data7mapping4type7__class7Float328CLASS_IDE",
            "__ZN5oatpp3web8protocol4http6Header6EXPECTE",
            "__ZTIN5oatpp4data6buffer18ProcessingPipelineE",
            "__ZN5oatpp3web8protocol4http6Header10USER_AGENTE",
            "__ZTSN5oatpp3web8protocol4http8encoding22ChunkedEncoderProviderE",
            "__ZN5oatpp8encoding3Hex14ALPHABET_LOWERE",
            "__ZTIN5oatpp7network6ServerE",
            "__ZN5oatpp4data7mapping4type7__class16AbstractPairList8CLASS_IDE",
            "__ZTIN5oatpp3web8protocol4http8encoding14EncoderChunkedE",
            "__ZTIN5oatpp3web8protocol4http8encoding14DecoderChunkedE",
            "__ZTVN5oatpp4base13DefaultLoggerE",
            "__ZTVN5oatpp4data6stream17BufferInputStreamE",
            "__ZTVN5oatpp3web6server21HttpConnectionHandlerE",
            "__ZTVN5oatpp4data6stream25DefaultInitializedContextE",
            "__ZTVN5oatpp3web6server7handler19DefaultErrorHandlerE",
            "__ZTSN5oatpp4data6buffer18ProcessingPipelineE",
            "__ZTSN5oatpp5async17AbstractCoroutineE",
            "__ZN5oatpp3web8protocol4http6Status8CODE_101E",
            "__ZN5oatpp3web8protocol4http6Status8CODE_503E",
            "__ZN5oatpp3web8protocol4http6Status8CODE_410E",
            "__ZTIN5oatpp3web6server13HttpProcessor9CoroutineE",
            "__ZN5oatpp3web8protocol4http6Header5Value29CONTENT_TYPE_APPLICATION_JSONE",
            "__ZN5oatpp3web8protocol4http6Status8CODE_409E",
            "__ZTSN5oatpp7network3tcp6server18ConnectionProvider21ConnectionInvalidatorE",
            "__ZN5oatpp3web8protocol4http6Status8CODE_425E",
            "__ZN5oatpp3web8protocol4http6Status8CODE_508E",
            "__ZTCN5oatpp7network3tcp6server18ConnectionProviderE0_NS0_24ServerConnectionProviderE",
            "__ZTVN5oatpp6parser5CaretE",
            "__ZN5oatpp3web8protocol4http6Status8CODE_200E",
            "__ZN5oatpp3web8protocol4http6Status8CODE_405E",
            "__ZN5oatpp3web8protocol4http5Range10UNIT_BYTESE",
            "__ZTIN5oatpp7network3tcp6server18ConnectionProvider18ExtendedConnectionE",
            "__ZN5oatpp3web3url7mapping7Pattern4Part12FUNCTION_VARE",
            "__ZTSN5oatpp4data6buffer8IOBufferE",
            "__ZTIN5oatpp7network3tcp6server18ConnectionProviderE",
            "__ZN5oatpp4base11Environment8m_loggerE",
            "__ZN5oatpp4data7mapping4type7__class6UInt648CLASS_IDE",
            "__ZN5oatpp3web8protocol4http6Status8CODE_500E",
            "__ZTVN5oatpp3web8protocol4http8encoding14EncoderChunkedE",
            "__ZTSN5oatpp7network3tcp6server18ConnectionProvider18ExtendedConnectionE",
            "__ZN5oatpp3web8protocol4http6Status8CODE_431E",
            "__ZN5oatpp3web8protocol4http6Status8CODE_504E",
            "__ZN5oatpp4data7mapping4type7__class5Int648CLASS_IDE",
            "__ZN5oatpp3web8protocol4http6Status8CODE_418E",
            "__ZN5oatpp3web8protocol4http6Status8CODE_505E",
            "__ZTSN5oatpp4data6stream30StatelessDataTransferProcessorE",
            "__ZTVN5oatpp6parser4json7mapping12ObjectMapperE",
            "__ZTSN5oatpp3web6server7handler19DefaultErrorHandlerE",
            "__ZN5oatpp3web8protocol4http6Header16WWW_AUTHENTICATEE",
            "__ZN5oatpp3web8protocol4http6Status8CODE_422E",
            "__ZTSN5oatpp4data6stream18BufferOutputStreamE"
          ],
          "weak": [
            "__ZN10LinkedList9classNameE",
            "__ZN23S31PacketWindowProperty9classNameE",
            "__ZN25S41PacketServerDifficulty9classNameE",
            "__ZN31S47PacketPlayerListHeaderFooter9classNameE",
            "__ZN18IInteractionObject9classNameE",
            "__ZN10DelayQueue9classNameE",
            "__ZN13ImmutableList9classNameE",
            "__ZN19InputMethodRequests9classNameE",
            "__ZN25C02PacketUseEntity_Action9classNameE",
            "__ZN9Component9classNameE",
            "__ZN21BreakIteratorProvider9classNameE",
            "__ZN21JavaLangReflectAccess9classNameE",
            "__ZN10LongBuffer9classNameE",
            "__ZN19DefaultResourcePack9classNameE",
            "__ZN17IdentityArrayList9classNameE",
            "__ZN4Type9classNameE",
            "__ZN21InvalidClassException9classNameE",
            "__ZN9FlavorMap9classNameE",
            "__ZN17Splitter_Strategy9classNameE",
            "__ZN9SortedSet9classNameE",
            "__ZN19Package_VersionInfo9classNameE",
            "__ZN24PageAttributes_ColorType9classNameE",
            "__ZN6Period9classNameE",
            "__ZN20PermissionCollection9classNameE",
            "__ZN9WorldInfo9classNameE",
            "__ZN36ServerStatusResponse_PlayerCountData9classNameE",
            "__ZN20VectorSupport_Vector9classNameE",
            "__ZN22PropertyChangeListener9classNameE",
            "__ZN9Reference9classNameE",
            "__ZN14ScoreObjective9classNameE",
            "__ZN11InputStream9classNameE",
            "__ZN16ClassSpecializer9classNameE",
            "__ZN21DropTargetContextPeer9classNameE",
            "__ZN3Era9classNameE",
            "__ZN7ByteBuf9classNameE",
            "__ZN11ThreadLocal9classNameE",
            "__ZN13LongSignature9classNameE",
            "__ZN12IBlockAccess9classNameE",
            "__ZN19WindowFocusListener9classNameE",
            "__ZN21ScatteringByteChannel9classNameE",
            "__ZN13ConcurrentMap9classNameE",
            "__ZN13ToIntFunction9classNameE",
            "__ZN17ChangeListenerMap9classNameE",
            "__ZN11ModuleLayer9classNameE",
            "__ZN14GraphicsDevice9classNameE",
            "__ZN9PublicKey9classNameE",
            "__ZN9PopupMenu9classNameE",
            "__ZN8KeyEvent9classNameE",
            "__ZN9ItemStack9classNameE",
            "__ZN22S1FPacketSetExperience9classNameE",
            "__ZN18ClassTypeSignature9classNameE",
            "__ZN40AbstractQueuedSynchronizer_ConditionNode9classNameE",
            "__ZN7VarForm9classNameE",
            "__ZN4Font9classNameE",
            "__ZN16String_interface9classNameE",
            "__ZN10ZoneOffset9classNameE",
            "__ZN20TypeParameterMatcher9classNameE",
            "__ZN9Throwable9classNameE",
            "__ZN13TypeSignature9classNameE",
            "__ZN10BiConsumer9classNameE",
            "__ZN20GameSettings_Options9classNameE",
            "__ZN15IPlayerFileData9classNameE",
            "__ZN26IntHashMap_Entry_interface9classNameE",
            "__ZN5Class9classNameE",
            "__ZN16TemporalAdjuster9classNameE",
            "__ZN21S26PacketMapChunkBulk9classNameE",
            "__ZN11DataWatcher9classNameE",
            "__ZN18DirectMethodHandle9classNameE",
            "__ZN14ComponentEvent9classNameE",
            "__ZN20C14PacketTabComplete9classNameE",
            "__ZN20ProtectionDomain_Key9classNameE",
            "__ZN13JsonPrimitive9classNameE",
            "__ZN20NetHandlerPlayServer9classNameE",
            "__ZN14PathConsumer2D9classNameE",
            "__ZN26Chunk_EnumCreateEntityType9classNameE",
            "__ZN14EntityFishHook9classNameE",
            "__ZN13LayerRenderer9classNameE",
            "__ZN6Locale9classNameE",
            "__ZN12NavigableSet9classNameE",
            "__ZN13ContainerPeer9classNameE",
            "__ZN28C0BPacketEntityAction_Action9classNameE",
            "__ZN15EntityItemFrame9classNameE",
            "__ZN20ImmutableSet_Builder9classNameE",
            "__ZN12TemporalUnit9classNameE",
            "__ZN12EntityPlayer9classNameE",
            "__ZN13AbstractQueue9classNameE",
            "__ZN10MemberName9classNameE",
            "__ZN11WorldServer9classNameE",
            "__ZN14AttributeValue9classNameE",
            "__ZN11FilenameURL9classNameE",
            "__ZN24S49PacketUpdateEntityNBT9classNameE",
            "__ZN15DrawGlyphListAA9classNameE",
            "__ZN21MusicTicker_MusicType9classNameE",
            "__ZN23BufferedImage_interface9classNameE",
            "__ZN24S04PacketEntityEquipment9classNameE",
            "__ZN23ISpectatorMenuRecipient9classNameE",
            "__ZN30ConcurrentHashMap_EntrySetView9classNameE",
            "__ZN4Enum9classNameE",
            "__ZN5Month9classNameE",
            "__ZN22ModuleLayer_Controller9classNameE",
            "__ZN29ObjectInputStream_HandleTable9classNameE",
            "__ZN8TimeUnit9classNameE",
            "__ZN28PlayerManager_PlayerInstance9classNameE",
            "__ZN6Buffer9classNameE",
            "__ZN14AssertionError9classNameE",
            "__ZN12PropertyEnum9classNameE",
            "__ZN22PatternSyntaxException9classNameE",
            "__ZN10ChronoUnit9classNameE",
            "__ZN24ClassSpecializer_Factory9classNameE",
            "__ZN14FileDescriptor9classNameE",
            "__ZN10Graphics2D9classNameE",
            "__ZN16RectangularShape9classNameE",
            "__ZN17DragSourceContext9classNameE",
            "__ZN16JsonBlendingMode9classNameE",
            "__ZN18ObjectOutputStream9classNameE",
            "__ZN10FrameTimer9classNameE",
            "__ZN21RecordComponentWriter9classNameE",
            "__ZN24DragSourceMotionListener9classNameE",
            "__ZN23JobAttributes_SidesType9classNameE",
            "__ZN19InventoryEnderChest9classNameE",
            "__ZN13StreamEncoder9classNameE",
            "__ZN16IntegratedServer9classNameE",
            "__ZN8Selector9classNameE",
            "__ZN16SelectorProvider9classNameE",
            "__ZN23EventListener_interface9classNameE",
            "__ZN30BlockDoublePlant_EnumPlantType9classNameE",
            "__ZN14FlavorListener9classNameE",
            "__ZN42AbstractQueuedSynchronizer_ConditionObject9classNameE",
            "__ZN17C18PacketSpectate9classNameE",
            "__ZN16IMetadataSection9classNameE",
            "__ZN21WorldServer_interface9classNameE",
            "__ZN9DayOfWeek9classNameE",
            "__ZN20InputMethodHighlight9classNameE",
            "__ZN28FieldTypeSignature_interface9classNameE",
            "__ZN18LocaleNameProvider9classNameE",
            "__ZN20AudioFormat_Encoding9classNameE",
            "__ZN6Number9classNameE",
            "__ZN14FloatSignature9classNameE",
            "__ZN24ReentrantContextProvider9classNameE",
            "__ZN27C0FPacketConfirmTransaction9classNameE",
            "__ZN4Menu9classNameE",
            "__ZN19WorldRenderer_State9classNameE",
            "__ZN22CharSequence_interface9classNameE",
            "__ZN9DataInput9classNameE",
            "__ZN4Edge9classNameE",
            "__ZN13MovementInput9classNameE",
            "__ZN13WorldProvider9classNameE",
            "__ZN29C08PacketPlayerBlockPlacement9classNameE",
            "__ZN26VarHandle_AccessDescriptor9classNameE",
            "__ZN50ObjectStreamClass_DeserializationConstructorsCache9classNameE",
            "__ZN22S05PacketSpawnPosition9classNameE",
            "__ZN8Splitter9classNameE",
            "__ZN20NoiseGeneratorPerlin9classNameE",
            "__ZN5Clock9classNameE",
            "__ZN10IInventory9classNameE",
            "__ZN13ResolverStyle9classNameE",
            "__ZZN5oatpp4data7mapping4type7__class4ListINS2_3AnyEE7getTypeEvE4type",
            "__ZN11LineMetrics9classNameE",
            "__ZN15ChronoLocalDate9classNameE",
            "__ZN8Iterator9classNameE",
            "__ZN10SocketImpl9classNameE",
            "__ZN10Teleporter9classNameE",
            "__ZN17ReflectionFactory9classNameE",
            "__ZN11ObjectInput9classNameE",
            "__ZN18MemorySegmentProxy9classNameE",
            "__ZN30LambdaForm_BasicType_interface9classNameE",
            "__ZN26IMetadataSectionSerializer9classNameE",
            "__ZN6Writer9classNameE",
            "__ZN19IRenderChunkFactory9classNameE",
            "__ZN8FillRect9classNameE",
            "__ZN14MethodTypeForm9classNameE",
            "__ZN12Thread_State9classNameE",
            "__ZN12PathIterator9classNameE",
            "__ZN12ValidatePipe9classNameE",
            "__ZN15Field_interface9classNameE",
            "__ZN27S1EPacketRemoveEntityEffect9classNameE",
            "__ZN18C02PacketUseEntity9classNameE",
            "__ZN15LambdaForm_Name9classNameE",
            "__ZN16FocusEvent_Cause9classNameE",
            "__ZN10ReturnType9classNameE",
            "__ZN4UUID9classNameE",
            "__ZN4Blit9classNameE",
            "__ZN13BreakIterator9classNameE",
            "__ZN23S25PacketBlockBreakAnim9classNameE",
            "__ZN15InvocationEvent9classNameE",
            "__ZN13ImageProducer9classNameE",
            "__ZN17HierarchyListener9classNameE",
            "__ZN13SimpleTexture9classNameE",
            "__ZN15TypeTreeVisitor9classNameE",
            "__ZN27ToolkitThreadBlockedHandler9classNameE",
            "__ZN12BaseCalendar9classNameE",
            "__ZN23IScoreObjectiveCriteria9classNameE",
            "__ZN13VolatileImage9classNameE",
            "__ZN16ModuleDescriptor9classNameE",
            "__ZN28DecimalFormatSymbolsProvider9classNameE",
            "__ZN21ConstructorRepository9classNameE",
            "__ZN23BlockRendererDispatcher9classNameE",
            "__ZN30ExtendedBlockStorage_interface9classNameE",
            "__ZN19S33PacketUpdateSign9classNameE",
            "_client",
            "__ZN26DecimalFormat_FastPathData9classNameE",
            "__ZN16DataOutputStream9classNameE",
            "__ZN6ISound9classNameE",
            "__ZN11SymbolTable9classNameE",
            "__ZN20S3APacketTabComplete9classNameE",
            "__ZN11MouseFilter9classNameE",
            "__ZN12NavigableMap9classNameE",
            "__ZN16ModalEventFilter9classNameE",
            "__ZN9arr_arr_I9classNameE",
            "__ZN24ModuleDescriptor_Exports9classNameE",
            "__ZN19DragSourceDragEvent9classNameE",
            "__ZN11SurfaceData9classNameE",
            "__ZN26ParallelListResourceBundle9classNameE",
            "__ZN10DragSource9classNameE",
            "__ZN14ICommandSender9classNameE",
            "__ZN15ICommandManager9classNameE",
            "__ZN8Vector4f9classNameE",
            "__ZN11AudioFormat9classNameE",
            "__ZN17EventListenerList9classNameE",
            "__ZN24SunDropTargetContextPeer9classNameE",
            "__ZN10Collection9classNameE",
            "__ZN17FilterInputStream9classNameE",
            "__ZN17VillageCollection9classNameE",
            "__ZN38ObjectOutputStream_DebugTraceInfoStack9classNameE",
            "__ZN8Graphics9classNameE",
            "__ZN12ItemRenderer9classNameE",
            "__ZN8Collator9classNameE",
            "__ZN24MapItemRenderer_Instance9classNameE",
            "__ZN9PathPoint9classNameE",
            "__ZN14PropertyHelper9classNameE",
            "__ZN16ReadableVector3f9classNameE",
            "__ZN20CurrencyNameProvider9classNameE",
            "__ZN6Member9classNameE",
            "__ZN16ServerScoreboard9classNameE",
            "__ZN22S10PacketSpawnPainting9classNameE",
            "__ZN21AAShapePipe_TileState9classNameE",
            "__ZN13ImageConsumer9classNameE",
            "__ZN9MidiEvent9classNameE",
            "__ZN13CharSignature9classNameE",
            "__ZN12VillageSiege9classNameE",
            "__ZN37AttributedCharacterIterator_interface9classNameE",
            "__ZN11IBakedModel9classNameE",
            "__ZN14EntityPlayerMP9classNameE",
            "__ZN18S21PacketChunkData9classNameE",
            "__ZN10EAttribute9classNameE",
            "__ZN20RendererLivingEntity9classNameE",
            "__ZN14S3EPacketTeams9classNameE",
            "__ZN6Parsed9classNameE",
            "__ZN19DropTargetDropEvent9classNameE",
            "__ZN22ClassNotFoundException9classNameE",
            "__ZN28S3BPacketScoreboardObjective9classNameE",
            "__ZN9ByteOrder9classNameE",
            "__ZN16DrawGlyphListLCD9classNameE",
            "__ZN15AccessibleTable9classNameE",
            "__ZN6Insets9classNameE",
            "__ZN12PacketBuffer9classNameE",
            "__ZN6Random9classNameE",
            "__ZN23EntityPlayer_EnumStatus9classNameE",
            "__ZN19S2DPacketOpenWindow9classNameE",
            "__ZN23S18PacketEntityTeleport9classNameE",
            "__ZN14FontStrikeDesc9classNameE",
            "__ZN11BlockFlower9classNameE",
            "__ZN17IEntityLivingData9classNameE",
            "__ZN16GraphicAttribute9classNameE",
            "__ZN7Charset9classNameE",
            "__ZN14DomainCombiner9classNameE",
            "__ZN8LockCode9classNameE",
            "__ZN22ModuleDescriptor_Opens9classNameE",
            "__ZN21GameProfile_interface9classNameE",
            "__ZN8Excluder9classNameE",
            "__ZN7Surface9classNameE",
            "__ZN11MidiMessage9classNameE",
            "__ZN16AccessibleBundle9classNameE",
            "__ZN18MemberName_Factory9classNameE",
            "__ZN25ChunkCompileTaskGenerator9classNameE",
            "__ZN5Block9classNameE",
            "__ZN19FormalTypeParameter9classNameE",
            "__ZN7MenuBar9classNameE",
            "__ZN12ListenerData9classNameE",
            "__ZN12VertexFormat9classNameE",
            "__ZN10LocaleData9classNameE",
            "__ZN31ObjectStreamClass_ExceptionInfo9classNameE",
            "__ZN13EntityAgeable9classNameE",
            "__ZN9GuiIngame9classNameE",
            "__ZN21LocaleServiceProvider9classNameE",
            "__ZN11EventObject9classNameE",
            "__ZN11Dimension2D9classNameE",
            "__ZN10DataFlavor9classNameE",
            "__ZN28VertexFormatElement_EnumType9classNameE",
            "__ZN7Delayed9classNameE",
            "__ZN20C11PacketEnchantItem9classNameE",
            "__ZN10MidiDevice9classNameE",
            "__ZN20S42PacketCombatEvent9classNameE",
            "__ZN13JobAttributes9classNameE",
            "__ZN8AWTEvent9classNameE",
            "__ZN17ExclusionStrategy9classNameE",
            "__ZN12StringBuffer9classNameE",
            "__ZN16S07PacketRespawn9classNameE",
            "__ZN11ClassWriter9classNameE",
            "__ZN5arr_Z9classNameE",
            "__ZN11ModelPlayer9classNameE",
            "__ZN13UnaryOperator9classNameE",
            "__ZN16ListenableFuture9classNameE",
            "__ZN13WorldGenSwamp9classNameE",
            "__ZN11PrintWriter9classNameE",
            "__ZN15MapData_MapInfo9classNameE",
            "__ZN13FieldPosition9classNameE",
            "__ZN10OffsetTime9classNameE",
            "__ZN10MouseEvent9classNameE",
            "__ZN24C13PacketPlayerAbilities9classNameE",
            "__ZN9LocalTime9classNameE",
            "__ZN13FocusListener9classNameE",
            "__ZN13DrawGlyphList9classNameE",
            "__ZN10ModelBiped9classNameE",
            "__ZN5arr_D9classNameE",
            "__ZN15Locale_Category9classNameE",
            "__ZN22ConcurrentHashMap_Node9classNameE",
            "__ZN31ObjectOutputStream_PutFieldImpl9classNameE",
            "__ZN5Since9classNameE",
            "__ZN20ISpectatorMenuObject9classNameE",
            "__ZN14DynamicTexture9classNameE",
            "__ZN11SkinManager9classNameE",
            "__ZN25AbstractSelectableChannel9classNameE",
            "__ZN7TreeSet9classNameE",
            "__ZN9Composite9classNameE",
            "__ZN17ObjectStreamClass9classNameE",
            "__ZN13LocalDateTime9classNameE",
            "__ZN7IStream9classNameE",
            "__ZN10EnumFacing9classNameE",
            "__ZN20CalendarNameProvider9classNameE",
            "__ZN20BigDecimal_interface9classNameE",
            "__ZN5Point9classNameE",
            "__ZN10JsonReader9classNameE",
            "__ZN28ReflectiveOperationException9classNameE",
            "__ZN11WorldBorder9classNameE",
            "__ZN7TreeMap9classNameE",
            "__ZN7BanList9classNameE",
            "__ZN20C0EPacketClickWindow9classNameE",
            "__ZN17LongHashMap_Entry9classNameE",
            "__ZN16NetworkInterface9classNameE",
            "__ZN12Session_Type9classNameE",
            "__ZN26ClassValue_Entry_interface9classNameE",
            "__ZN55ServerStatusResponse_MinecraftProtocolVersionIdentifier9classNameE",
            "__ZN25WorldVertexBufferUploader9classNameE",
            "__ZN18IAttributeInstance9classNameE",
            "__ZN14SpawnerAnimals9classNameE",
            "__ZN17MutableBigInteger9classNameE",
            "__ZN5Paint9classNameE",
            "__ZN21DragSourceContextPeer9classNameE",
            "__ZN29PixelToParallelogramConverter9classNameE",
            "__ZN15AbstractTexture9classNameE",
            "__ZN19Parameter_interface9classNameE",
            "__ZN13Era_interface9classNameE",
            "__ZN17FieldNamingPolicy9classNameE",
            "__ZN17ShapeSpanIterator9classNameE",
            "__ZN14TemporalAmount9classNameE",
            "__ZN20ByteBuffer_interface9classNameE",
            "__ZN11SoundBuffer9classNameE",
            "__ZN16LocaleExtensions9classNameE",
            "__ZN13S02PacketChat9classNameE",
            "__ZN20Class_ReflectionData9classNameE",
            "__ZN15FontLineMetrics9classNameE",
            "__ZN27AbstractOwnableSynchronizer9classNameE",
            "__ZN16S2FPacketSetSlot9classNameE",
            "__ZN13AnnotatedType9classNameE",
            "__ZN9Crossings9classNameE",
            "__ZN26AccessibleObject_interface9classNameE",
            "__ZN20VertexBufferUploader9classNameE",
            "__ZN15AccessibleState9classNameE",
            "__ZN20S29PacketSoundEffect9classNameE",
            "__ZN18S00PacketKeepAlive9classNameE",
            "__ZN18RegistryNamespaced9classNameE",
            "__ZN10PrivateKey9classNameE",
            "__ZN18ItemMeshDefinition9classNameE",
            "__ZN13S34PacketMaps9classNameE",
            "__ZN14CalendarSystem9classNameE",
            "__ZN42JobAttributes_MultipleDocumentHandlingType9classNameE",
            "__ZN16LambdaFormBuffer9classNameE",
            "__ZN13MessageHeader9classNameE",
            "__ZN10FocusEvent9classNameE",
            "__ZN20WorldGenAbstractTree9classNameE",
            "__ZN10TimerQueue9classNameE",
            "__ZN11MathContext9classNameE",
            "__ZN8Optional9classNameE",
            "__ZN7Polygon9classNameE",
            "__ZN26Character_Subset_interface9classNameE",
            "__ZN22PasswordAuthentication9classNameE",
            "__ZN12UserListBans9classNameE",
            "__ZN9TaskQueue9classNameE",
            "__ZN11MatchResult9classNameE",
            "__ZN8DrawLine9classNameE",
            "__ZN19DropTargetDragEvent9classNameE",
            "__ZN15InetAddressImpl9classNameE",
            "__ZN16ConstantPool_Tag9classNameE",
            "__ZN40ObjectOutputStream_BlockDataOutputStream9classNameE",
            "__ZN13CompiledChunk9classNameE",
            "__ZN14ResolvedModule9classNameE",
            "__ZN19S40PacketDisconnect9classNameE",
            "__ZN10PathEntity9classNameE",
            "__ZN18FontStrikeDisposer9classNameE",
            "__ZN27Container_EventTargetFilter9classNameE",
            "__ZN27ReentrantReadWriteLock_Sync9classNameE",
            "__ZN14TreeMap_KeySet9classNameE",
            "__ZN17ConcurrentHashMap9classNameE",
            "__ZN19GameRules_ValueType9classNameE",
            "__ZN13NumericShaper9classNameE",
            "__ZN18DifficultyInstance9classNameE",
            "__ZN9JsonArray9classNameE",
            "__ZN8Function9classNameE",
            "__ZN17ContainerListener9classNameE",
            "__ZN8Currency9classNameE",
            "__ZN17S01PacketJoinGame9classNameE",
            "__ZN28AccessibleRelation_interface9classNameE",
            "__ZN23S36PacketSignEditorOpen9classNameE",
            "__ZN16BiomeCache_Block9classNameE",
            "__ZN12IntSignature9classNameE",
            "__ZN15LanguageManager9classNameE",
            "__ZN19ChronoLocalDateTime9classNameE",
            "__ZN11AbstractMap9classNameE",
            "__ZN32GraphicsPrimitive_GeneralUnaryOp9classNameE",
            "__ZN13PixelFillPipe9classNameE",
            "__ZN12StreamThread9classNameE",
            "__ZN17DateTimeException9classNameE",
            "__ZN13TemporalField9classNameE",
            "__ZN21Certificate_interface9classNameE",
            "__ZN9GuiButton9classNameE",
            "__ZN11Certificate9classNameE",
            "__ZN13NetworkSystem9classNameE",
            "__ZN34ItemCameraTransforms_TransformType9classNameE",
            "__ZN10Chronology9classNameE",
            "__ZN30ChunkCompileTaskGenerator_Type9classNameE",
            "__ZN10PaintEvent9classNameE",
            "__ZN21Cursor_CursorDisposer9classNameE",
            "__ZN12DamageSource9classNameE",
            "__ZN13ThreadFactory9classNameE",
            "__ZN12PathNavigate9classNameE",
            "__ZN12StateTracker9classNameE",
            "__ZN31ReentrantReadWriteLock_ReadLock9classNameE",
            "__ZN19BiomeGenBase_Height9classNameE",
            "__ZN13AtomicBoolean9classNameE",
            "__ZN8EntityFX9classNameE",
            "__ZN20Splitter_MapSplitter9classNameE",
            "__ZN37BoundMethodHandle_Specializer_Factory9classNameE",
            "__ZN14IChunkProvider9classNameE",
            "__ZN25Currency_CurrencyProperty9classNameE",
            "__ZN14ShortSignature9classNameE",
            "__ZN9Formatter9classNameE",
            "__ZN23ThreadDownloadImageData9classNameE",
            "__ZZN5oatpp6parser4json7mapping12ObjectMapper13getMapperInfoEvE4info",
            "__ZN15InventoryPlayer9classNameE",
            "__ZN21Locale_IsoCountryCode9classNameE",
            "__ZN19EntityLightningBolt9classNameE",
            "__ZN15ScorePlayerTeam9classNameE",
            "__ZN16PhantomCleanable9classNameE",
            "__ZN5Error9classNameE",
            "__ZN13Attribute_Set9classNameE",
            "__ZN12FocusManager9classNameE",
            "__ZN23SoundCategory_interface9classNameE",
            "__ZN32RegistryNamespacedDefaultedByKey9classNameE",
            "__ZN13ReentrantLock9classNameE",
            "__ZN16AbstractCalendar9classNameE",
            "__ZN23TypeSignature_interface9classNameE",
            "__ZN26BlockFlower_EnumFlowerType9classNameE",
            "__ZN5Label9classNameE",
            "__ZN11RenderChunk9classNameE",
            "__ZN19S37PacketStatistics9classNameE",
            "__ZN18ToDoubleBiFunction9classNameE",
            "__ZN5Vec3i9classNameE",
            "__ZN34DateTimeFormatterBuilder_DayPeriod9classNameE",
            "__ZN15MinecraftServer9classNameE",
            "__ZN16ComponentFactory9classNameE",
            "__ZN16AbstractSelector9classNameE",
            "__ZN5arr_F9classNameE",
            "__ZN24EventFilter_FilterAction9classNameE",
            "__ZN16TreeMap_EntrySet9classNameE",
            "__ZN8TypePath9classNameE",
            "__ZN9ZoneRules9classNameE",
            "__ZN14NBTTagIntArray9classNameE",
            "__ZN14BufferStrategy9classNameE",
            "__ZN14NetworkManager9classNameE",
            "__ZN20MethodHandles_Lookup9classNameE",
            "__ZN16Pattern_TreeInfo9classNameE",
            "__ZN34VectorSupport_StoreVectorOperation9classNameE",
            "__ZN20ChunkRenderContainer9classNameE",
            "__ZN8FontPeer9classNameE",
            "__ZN16PhantomReference9classNameE",
            "__ZN8MenuItem9classNameE",
            "__ZN12CollationKey9classNameE",
            "__ZN6Region9classNameE",
            "__ZN19PropertyChangeEvent9classNameE",
            "__ZN10FileFilter9classNameE",
            "__ZN8CallSite9classNameE",
            "__ZN14ClassSignature9classNameE",
            "__ZN32ReentrantReadWriteLock_WriteLock9classNameE",
            "__ZN13Configuration9classNameE",
            "__ZN17BoundMethodHandle9classNameE",
            "__ZN28ChannelInboundHandlerAdapter9classNameE",
            "__ZN21Properties_LineReader9classNameE",
            "__ZN27LongHashMap_Entry_interface9classNameE",
            "__ZN20LinkedTreeMap_KeySet9classNameE",
            "__ZN5Color9classNameE",
            "__ZN5Chunk9classNameE",
            "__ZN25AccessibleState_interface9classNameE",
            "__ZN11Enchantment9classNameE",
            "__ZN8Iterable9classNameE",
            "__ZN29BoundMethodHandle_Specializer9classNameE",
            "__ZN26ObjectInputStream_GetField9classNameE",
            "__ZGVZN5oatpp6parser4json7mapping12ObjectMapper13getMapperInfoEvE4info",
            "__ZN10CodeSource9classNameE",
            "__ZN9GuiScreen9classNameE",
            "__ZN13ChestRenderer9classNameE",
            "__ZN12GameSettings9classNameE",
            "__ZN16EnumFacing_Plane9classNameE",
            "__ZN24JobAttributes_DialogType9classNameE",
            "__ZN20ObjectIntIdentityMap9classNameE",
            "__ZN20TimeZoneNameProvider9classNameE",
            "__ZN35MethodHandleNatives_CallSiteContext9classNameE",
            "__ZN12PropertyBool9classNameE",
            "__ZN19WorldGenDoublePlant9classNameE",
            "__ZN21PropertyChangeSupport9classNameE",
            "__ZN9BlockBush9classNameE",
            "__ZN12LoadingCache9classNameE",
            "__ZN11ChunkPrimer9classNameE",
            "__ZN17Cleaner_Cleanable9classNameE",
            "__ZN12VertexBuffer9classNameE",
            "__ZN10TextureMap9classNameE",
            "__ZN22C07PacketPlayerDigging9classNameE",
            "__ZN7Handler9classNameE",
            "__ZN12TypeVariable9classNameE",
            "__ZN16ToLongBiFunction9classNameE",
            "__ZN6Dialog9classNameE",
            "__ZN26ThreadLocal_ThreadLocalMap9classNameE",
            "__ZN10CharBuffer9classNameE",
            "__ZN19Provider_ServiceKey9classNameE",
            "__ZN19EnumWorldBlockLayer9classNameE",
            "__ZN9Rotations9classNameE",
            "__ZN10EventQueue9classNameE",
            "__ZN7HashSet9classNameE",
            "__ZN11Synthesizer9classNameE",
            "__ZN33DropTarget_DropTargetAutoScroller9classNameE",
            "__ZN7Matcher9classNameE",
            "__ZN21EnumCreatureAttribute9classNameE",
            "__ZN9DigitList9classNameE",
            "__ZN17AnnotationVisitor9classNameE",
            "__ZN13MouseListener9classNameE",
            "__ZN20DateTimePrintContext9classNameE",
            "__ZN11Constructor9classNameE",
            "__ZN18RenderingHints_Key9classNameE",
            "__ZN19Attribute_interface9classNameE",
            "__ZN9FillSpans9classNameE",
            "__ZN11FormatStyle9classNameE",
            "__ZN10UniqueName9classNameE",
            "__ZN13SpectatorMenu9classNameE",
            "__ZN31GenericFutureListener_interface9classNameE",
            "__ZN9Attribute9classNameE",
            "__ZN7Boolean9classNameE",
            "__ZN32PropertyChangeListener_interface9classNameE",
            "__ZN34MethodType_ConcurrentWeakInternSet9classNameE",
            "__ZN18PlayerCapabilities9classNameE",
            "__ZN22StateTrackableDelegate9classNameE",
            "__ZN18PlayerUsageSnooper9classNameE",
            "__ZN10GuiNewChat9classNameE",
            "__ZN19EntityWeatherEffect9classNameE",
            "__ZN21TypeVariableSignature9classNameE",
            "__ZN10Autoscroll9classNameE",
            "__ZN20CalendarDataProvider9classNameE",
            "__ZN18SunDropTargetEvent9classNameE",
            "__ZN6Stroke9classNameE",
            "__ZN8TimeZone9classNameE",
            "__ZN18BlockFluidRenderer9classNameE",
            "__ZN17StackTraceElement9classNameE",
            "__ZN13SoundCategory9classNameE",
            "__ZN10FontFamily9classNameE",
            "__ZN28ConcurrentHashMap_ValuesView9classNameE",
            "__ZN8UserList9classNameE",
            "__ZN23ResourceBundle_CacheKey9classNameE",
            "__ZN11FloatBuffer9classNameE",
            "__ZN6Thread9classNameE",
            "__ZN4Item9classNameE",
            "__ZN12ClassVisitor9classNameE",
            "__ZN21AccessibleRelationSet9classNameE",
            "__ZN17NetworkPlayerInfo9classNameE",
            "__ZN20Pattern_CharProperty9classNameE",
            "__ZN23S38PacketPlayerListItem9classNameE",
            "__ZN19MouseMotionListener9classNameE",
            "__ZN7Point2D9classNameE",
            "__ZN6Handle9classNameE",
            "__ZN26AnnotationWriter_interface9classNameE",
            "__ZN12IStateMapper9classNameE",
            "__ZN21S19PacketEntityStatus9classNameE",
            "__ZN12IPlayerUsage9classNameE",
            "__ZN16ScaledResolution9classNameE",
            "__ZN12ModuleWriter9classNameE",
            "__ZN20ServerCommandManager9classNameE",
            "__ZN19VertexFormatElement9classNameE",
            "__ZN16AccessibleObject9classNameE",
            "__ZN8Vector2f9classNameE",
            "__ZN14TextureManager9classNameE",
            "__ZN14WorldGenerator9classNameE",
            "__ZN18ForwardingMultimap9classNameE",
            "__ZN10BiomeCache9classNameE",
            "__ZN19MethodTypeSignature9classNameE",
            "__ZN28S21PacketChunkData_Extracted9classNameE",
            "__ZN11TimerThread9classNameE",
            "__ZN10RenderItem9classNameE",
            "__ZN9SecretKey9classNameE",
            "__ZN31C16PacketClientStatus_EnumState9classNameE",
            "__ZN22ConstructorConstructor9classNameE",
            "__ZN26LambdaFormEditor_Transform9classNameE",
            "__ZN10Comparator9classNameE",
            "__ZN11ShortBuffer9classNameE",
            "__ZN6Packet9classNameE",
            "__ZN19AccessibleSelection9classNameE",
            "__ZN30YggdrasilAuthenticationService9classNameE",
            "__ZN16ClassValue_Entry9classNameE",
            "__ZN11SurfaceType9classNameE",
            "__ZN13URLConnection9classNameE",
            "__ZN25S48PacketResourcePackSend9classNameE",
            "__ZN19ClassValue_Identity9classNameE",
            "__ZN27ObjectOutputStream_PutField9classNameE",
            "__ZN13StrikeMetrics9classNameE",
            "__ZN15ServicesCatalog9classNameE",
            "__ZN14CommandHandler9classNameE",
            "__ZN9GameRules9classNameE",
            "__ZN31EntityAITasks_EntityAITaskEntry9classNameE",
            "__ZN27LayerInstantiationException9classNameE",
            "__ZN12DrawPolygons9classNameE",
            "__ZN5Float9classNameE",
            "__ZN18DropTargetListener9classNameE",
            "__ZN23TimerQueue_DelayedTimer9classNameE",
            "__ZN18TextureAtlasSprite9classNameE",
            "__ZN21INetHandlerPlayServer9classNameE",
            "__ZN37AttributedCharacterIterator_Attribute9classNameE",
            "__ZN8Response9classNameE",
            "__ZN15AATileGenerator9classNameE",
            "__ZN12Font2DHandle9classNameE",
            "__ZN10Appendable9classNameE",
            "__ZN34ResourceBundle_KeyElementReference9classNameE",
            "__ZN16AWTEventListener9classNameE",
            "__ZN18Rectangle2D_Double9classNameE",
            "__ZN17WorldChunkManager9classNameE",
            "__ZN11UserListOps9classNameE",
            "__ZN28S46PacketSetCompressionLevel9classNameE",
            "__ZN11EntityArrow9classNameE",
            "__ZN14ToLongFunction9classNameE",
            "__ZN21S1DPacketEntityEffect9classNameE",
            "__ZN18TransformAttribute9classNameE",
            "__ZN8Matrix4f9classNameE",
            "__ZN5Score9classNameE",
            "__ZN7Pattern9classNameE",
            "__ZN15ToIntBiFunction9classNameE",
            "__ZN31Thread_UncaughtExceptionHandler9classNameE",
            "__ZN14DatagramSocket9classNameE",
            "__ZN22IllegalAccessException9classNameE",
            "__ZN21GenericFutureListener9classNameE",
            "__ZN14DropTargetPeer9classNameE",
            "__ZN19CrashReportCategory9classNameE",
            "__ZN16ToDoubleFunction9classNameE",
            "__ZN11Rectangle2D9classNameE",
            "__ZN7Visitor9classNameE",
            "__ZN12ServerSocket9classNameE",
            "__ZN5Queue9classNameE",
            "__ZN6Object9classNameE",
            "__ZN37SoundManager_SoundSystemStarterThread9classNameE",
            "__ZN11PointerInfo9classNameE",
            "__ZN24AnimationMetadataSection9classNameE",
            "__ZN14C0CPacketInput9classNameE",
            "__ZN14ReferenceQueue9classNameE",
            "__ZN14WindowListener9classNameE",
            "__ZN6Marker9classNameE",
            "__ZN16SpectatorDetails9classNameE",
            "__ZN9Hashtable9classNameE",
            "__ZN14ProtocolFamily9classNameE",
            "__ZN14StatFileWriter9classNameE",
            "__ZN16Team_EnumVisible9classNameE",
            "__ZN9Container9classNameE",
            "__ZN19C12PacketUpdateSign9classNameE",
            "__ZN13NodeProcessor9classNameE",
            "__ZN6BitSet9classNameE",
            "__ZN9Explosion9classNameE",
            "__ZN23ShaderLoader_ShaderType9classNameE",
            "__ZN10ColorSpace9classNameE",
            "__ZN12ShaderLoader9classNameE",
            "__ZN19ItemStack_interface9classNameE",
            "__ZN29EnumEnchantmentType_interface9classNameE",
            "__ZN22TypeArgument_interface9classNameE",
            "__ZN16EnumBorderStatus9classNameE",
            "__ZN16Method_interface9classNameE",
            "__ZN17ObjectInputStream9classNameE",
            "__ZN12Pattern_Node9classNameE",
            "__ZN34JobAttributes_DefaultSelectionType9classNameE",
            "__ZN9IntBuffer9classNameE",
            "__ZN13ModelRenderer9classNameE",
            "__ZN6Raster9classNameE",
            "__ZN23LongSerializationPolicy9classNameE",
            "__ZN20Locale_FilteringMode9classNameE",
            "__ZN17ChunkCoordIntPair9classNameE",
            "__ZN10EntityItem9classNameE",
            "__ZN22LinkedTreeMap_EntrySet9classNameE",
            "__ZN8DrawRect9classNameE",
            "__ZN17CodingErrorAction9classNameE",
            "__ZN13ComponentPeer9classNameE",
            "__ZN13CompositeType9classNameE",
            "__ZN9IProperty9classNameE",
            "__ZN20AccessControlContext9classNameE",
            "__ZN13Pattern_Qtype9classNameE",
            "__ZN15WorldGenBigTree9classNameE",
            "__ZN6Font2D9classNameE",
            "__ZN18FilterOutputStream9classNameE",
            "__ZN14WritableRaster9classNameE",
            "__ZN9FoodStats9classNameE",
            "__ZN11TypeAdapter9classNameE",
            "__ZN8Invokers9classNameE",
            "__ZN10DataOutput9classNameE",
            "__ZN20C0DPacketCloseWindow9classNameE",
            "__ZN10IntHashMap9classNameE",
            "__ZN21ThreadGroup_interface9classNameE",
            "__ZN21ChunkRenderDispatcher9classNameE",
            "__ZN15ClassRepository9classNameE",
            "__ZN16ForwardingObject9classNameE",
            "__ZN7KeyPair9classNameE",
            "__ZN11PropertyMap9classNameE",
            "__ZN16TemporalAccessor9classNameE",
            "__ZN13SocketChannel9classNameE",
            "__ZN17DropTargetContext9classNameE",
            "__ZN19ChunkProviderClient9classNameE",
            "__ZN11AbstractSet9classNameE",
            "__ZN8ICommand9classNameE",
            "__ZN22S3FPacketCustomPayload9classNameE",
            "__ZN10BigDecimal9classNameE",
            "__ZN7Toolkit9classNameE",
            "__ZN11MusicTicker9classNameE",
            "__ZN11ShaderGroup9classNameE",
            "__ZN21SerialCallbackContext9classNameE",
            "__ZN17SymbolTable_Entry9classNameE",
            "__ZN7Package9classNameE",
            "__ZN25S20PacketEntityProperties9classNameE",
            "__ZN8FontInfo9classNameE",
            "__ZN30S38PacketPlayerListItem_Action9classNameE",
            "__ZN26ProtectionDomain_interface9classNameE",
            "__ZN15ConstantDynamic9classNameE",
            "__ZN8LoopPipe9classNameE",
            "__ZN5arr_J9classNameE",
            "__ZN21S06PacketUpdateHealth9classNameE",
            "__ZN4Date9classNameE",
            "__ZN13WeakReference9classNameE",
            "__ZN15GenericsFactory9classNameE",
            "__ZN17SoundSystemLogger9classNameE",
            "__ZN19InputMethodListener9classNameE",
            "__ZN9Extension9classNameE",
            "__ZN26VarHandle_TypesAndInvokers9classNameE",
            "__ZN13SoundRegistry9classNameE",
            "__ZN21GameProfileRepository9classNameE",
            "__ZN23URLStreamHandlerFactory9classNameE",
            "__ZN9Exception9classNameE",
            "__ZN11SoundSystem9classNameE",
            "__ZN27VectorSupport_VectorPayload9classNameE",
            "__ZN13IsoChronology9classNameE",
            "__ZN9ArrayList9classNameE",
            "__ZN11InetAddress9classNameE",
            "__ZN16BlockStateMapper9classNameE",
            "__ZN20DataFlavor_interface9classNameE",
            "__ZN13WorldRenderer9classNameE",
            "__ZN14ContentHandler9classNameE",
            "__ZN12PotionEffect9classNameE",
            "__ZN14HierarchyEvent9classNameE",
            "__ZN28SurfaceManager_ImageAccessor9classNameE",
            "__ZN6Vector9classNameE",
            "__ZN25Dialog_ModalExclusionType9classNameE",
            "__ZN23S1CPacketEntityMetadata9classNameE",
            "__ZN9TypeToken9classNameE",
            "__ZN27Authenticator_RequestorType9classNameE",
            "__ZN22RequestFocusController9classNameE",
            "__ZN12SimpleThread9classNameE",
            "__ZN7ICamera9classNameE",
            "__ZN16Pipe_SinkChannel9classNameE",
            "__ZN11FontMetrics9classNameE",
            "__ZN18PlayerProfileCache9classNameE",
            "__ZN29Throwable_PrintStreamOrWriter9classNameE",
            "__ZN11RenderCache9classNameE",
            "__ZN12EnumSkyBlock9classNameE",
            "__ZN31BufferCapabilities_FlipContents9classNameE",
            "__ZN24Pattern_BmpCharPredicate9classNameE",
            "__ZN20PlatformLogger_Level9classNameE",
            "__ZN8BlockPos9classNameE",
            "__ZN11ClassLoader9classNameE",
            "__ZN16EntityBodyHelper9classNameE",
            "__ZN25LambdaForm_Name_interface9classNameE",
            "__ZN16ClassLoaderValue9classNameE",
            "__ZN15ItemModelMesher9classNameE",
            "__ZN12IWorldAccess9classNameE",
            "__ZN28AbstractInterruptibleChannel9classNameE",
            "__ZN20S24PacketBlockAction9classNameE",
            "__ZN15LambdaForm_Kind9classNameE",
            "__ZN24S39PacketPlayerAbilities9classNameE",
            "__ZN12Transferable9classNameE",
            "__ZN32Component_BaselineResizeBehavior9classNameE",
            "__ZN13MethodVisitor9classNameE",
            "__ZN27SimpleChannelInboundHandler9classNameE",
            "__ZN9Map_Entry9classNameE",
            "__ZN6Symbol9classNameE",
            "__ZN39BlockModelRenderer_AmbientOcclusionFace9classNameE",
            "__ZN10ColorModel9classNameE",
            "__ZN12MenuShortcut9classNameE",
            "__ZN17HttpURLConnection9classNameE",
            "__ZN12SelectionKey9classNameE",
            "__ZN20VarHandle_AccessMode9classNameE",
            "__ZN26AbstractQueuedSynchronizer9classNameE",
            "__ZN19PathPoint_interface9classNameE",
            "__ZN15AffineTransform9classNameE",
            "__ZN6Format9classNameE",
            "__ZN11ChronoField9classNameE",
            "__ZN21ChunkProviderSettings9classNameE",
            "__ZN4Slot9classNameE",
            "__ZN5Frame9classNameE",
            "__ZN15DoubleSignature9classNameE",
            "__ZN15LinkedList_Node9classNameE",
            "__ZN6Shader9classNameE",
            "__ZN14ITextureObject9classNameE",
            "__ZN14EffectRenderer9classNameE",
            "__ZN33GraphicsDevice_WindowTranslucency9classNameE",
            "__ZN12TileObserver9classNameE",
            "__ZN18ResolvedMethodName9classNameE",
            "__ZN11AnimalChest9classNameE",
            "__ZN9TextStyle9classNameE",
            "__ZN22AccessibleEditableText9classNameE",
            "__ZN24IllegalArgumentException9classNameE",
            "__ZN18AccessibleStateSet9classNameE",
            "__ZN12DoubleBuffer9classNameE",
            "__ZN32ConcurrentHashMap_CollectionView9classNameE",
            "__ZN17ObjectConstructor9classNameE",
            "__ZN20S30PacketWindowItems9classNameE",
            "__ZN11ActionEvent9classNameE",
            "__ZN19IMetadataSerializer9classNameE",
            "__ZN14SurfaceManager9classNameE",
            "__ZN18C00PacketKeepAlive9classNameE",
            "__ZN27BlockFlower_EnumFlowerColor9classNameE",
            "__ZN14AnimationFrame9classNameE",
            "__ZN28ConcurrentHashMap_KeySetView9classNameE",
            "__ZN25PageAttributes_OriginType9classNameE",
            "__ZN18OutputStreamWriter9classNameE",
            "__ZN14SoundPoolEntry9classNameE",
            "__ZN20DoubleBinaryOperator9classNameE",
            "__ZN41ResourceBundle_Control_CandidateListCache9classNameE",
            "__ZN4List9classNameE",
            "__ZN7Integer9classNameE",
            "__ZN10Proxy_Type9classNameE",
            "__ZN28ClassTypeSignature_interface9classNameE",
            "__ZN12RoundingMode9classNameE",
            "__ZN14OffsetDateTime9classNameE",
            "__ZN19EnumEnchantmentType9classNameE",
            "__ZN15S28PacketEffect9classNameE",
            "__ZN5arr_I9classNameE",
            "__ZN20TileEntityEnderChest9classNameE",
            "__ZN14DatagramPacket9classNameE",
            "__ZN21ChannelHandlerContext9classNameE",
            "__ZN17MenuComponentPeer9classNameE",
            "__ZN16Provider_Service9classNameE",
            "__ZN12EntityAIBase9classNameE",
            "__ZN29BoundMethodHandle_SpeciesData9classNameE",
            "__ZN11CrashReport9classNameE",
            "__ZN29InetAddress_InetAddressHolder9classNameE",
            "__ZN11RenderLoops9classNameE",
            "__ZN10LongStream9classNameE",
            "__ZN13UserListEntry9classNameE",
            "__ZN11IOException9classNameE",
            "__ZN23C09PacketHeldItemChange9classNameE",
            "__ZN37ImmutableCollection_ArrayBasedBuilder9classNameE",
            "__ZN16IParticleFactory9classNameE",
            "__ZN20OffScreenImageSource9classNameE",
            "__ZN18GuiStreamIndicator9classNameE",
            "__ZN5Track9classNameE",
            "__ZN6Module9classNameE",
            "__ZN17FillParallelogram9classNameE",
            "__ZN3Map9classNameE",
            "__ZN27ExclusionStrategy_interface9classNameE",
            "__ZN16EntityMoveHelper9classNameE",
            "__ZN34C19PacketResourcePackStatus_Action9classNameE",
            "__ZN5Debug9classNameE",
            "__ZN25AssertionStatusDirectives9classNameE",
            "__ZN21LoadingScreenRenderer9classNameE",
            "__ZN21INetHandlerPlayClient9classNameE",
            "__ZN13LayoutManager9classNameE",
            "__ZN10FileSystem9classNameE",
            "__ZN23InetAddress_NameService9classNameE",
            "__ZN17AttributeModifier9classNameE",
            "__ZN19EventDispatchThread9classNameE",
            "__ZN21DragGestureRecognizer9classNameE",
            "__ZN16DragGestureEvent9classNameE",
            "__ZN4Path9classNameE",
            "__ZN18ClassValue_Version9classNameE",
            "__ZN15RenderableImage9classNameE",
            "__ZN13MenuComponent9classNameE",
            "__ZN13RenderedImage9classNameE",
            "__ZN12NumberFormat9classNameE",
            "__ZN10MethodType9classNameE",
            "__ZN12ConstantPool9classNameE",
            "__ZN6Socket9classNameE",
            "__ZN15S0APacketUseBed9classNameE",
            "__ZN14Point2D_Double9classNameE",
            "__ZN13RenderManager9classNameE",
            "__ZGV6client",
            "__ZN5arr_C9classNameE",
            "__ZN18ItemTransformVec3f9classNameE",
            "__ZN14EventQueueItem9classNameE",
            "__ZN11GlyphVector9classNameE",
            "__ZN5World9classNameE",
            "__ZN11ISaveFormat9classNameE",
            "__ZN17HoverEvent_Action9classNameE",
            "__ZN18MouseWheelListener9classNameE",
            "__ZN14PageAttributes9classNameE",
            "__ZN20FocusTraversalPolicy9classNameE",
            "__ZN15WorldGenFlowers9classNameE",
            "__ZN17BlockLog_EnumAxis9classNameE",
            "__ZN21ObjectStreamException9classNameE",
            "__ZN20MultiResolutionImage9classNameE",
            "__ZN18AbstractCollection9classNameE",
            "__ZN8StatBase9classNameE",
            "__ZN12BiomeGenBase9classNameE",
            "__ZN22GraphicsConfigTemplate9classNameE",
            "__ZN11GeneralPath9classNameE",
            "__ZN16URLStreamHandler9classNameE",
            "__ZN27VectorSupport_LoadOperation9classNameE",
            "__ZN18ItemInWorldManager9classNameE",
            "__ZN12ImmutableSet9classNameE",
            "__ZN16ByteBufProcessor9classNameE",
            "__ZN9Dimension9classNameE",
            "__ZN20S23PacketBlockChange9classNameE",
            "__ZN15C03PacketPlayer9classNameE",
            "__ZN11WorldClient9classNameE",
            "__ZN6Line2D9classNameE",
            "__ZN16EntityLivingBase9classNameE",
            "__ZN11ThreadGroup9classNameE",
            "__ZN11WindowEvent9classNameE",
            "__ZN16ReentrantContext9classNameE",
            "__ZN12RenderGlobal9classNameE",
            "__ZN8DrawPath9classNameE",
            "__ZN14BufferedWriter9classNameE",
            "__ZN22GlyphJustificationInfo9classNameE",
            "__ZN24ModuleDescriptor_Builder9classNameE",
            "__ZN10BiFunction9classNameE",
            "__ZN11TextHitInfo9classNameE",
            "__ZN7EnumMap9classNameE",
            "__ZN12LazyLoadBase9classNameE",
            "__ZN15CharsetProvider9classNameE",
            "__ZN8Callable9classNameE",
            "__ZN15MapItemRenderer9classNameE",
            "__ZN18EnumChatFormatting9classNameE",
            "__ZN12ISaveHandler9classNameE",
            "__ZN7Context9classNameE",
            "__ZN10JsonObject9classNameE",
            "__ZN22S08PacketPlayerPosLook9classNameE",
            "__ZN8Vector3f9classNameE",
            "__ZN9Gregorian9classNameE",
            "__ZN20NumberFormatProvider9classNameE",
            "__ZN12CharSequence9classNameE",
            "__ZN10Properties9classNameE",
            "__ZN21LightweightDispatcher9classNameE",
            "__ZN9Character9classNameE",
            "__ZN6Logger9classNameE",
            "__ZN13CombatTracker9classNameE",
            "__ZN14GuiAchievement9classNameE",
            "__ZN10Annotation9classNameE",
            "__ZN15DataInputStream9classNameE",
            "__ZN17LocaleObjectCache9classNameE",
            "__ZN20S3CPacketUpdateScore9classNameE",
            "__ZN9Minecraft9classNameE",
            "__ZN5Proxy9classNameE",
            "__ZN11KeyListener9classNameE",
            "__ZN24WrongMethodTypeException9classNameE",
            "__ZN15AccessibleValue9classNameE",
            "__ZN8Vector3d9classNameE",
            "__ZN13DecimalFormat9classNameE",
            "__ZN20S2EPacketCloseWindow9classNameE",
            "__ZN16Object_interface9classNameE",
            "__ZN30MethodHandles_Lookup_ClassFile9classNameE",
            "__ZN15IdentityHashMap9classNameE",
            "__ZN9IMerchant9classNameE",
            "__ZN31ObjectOutputStream_ReplaceTable9classNameE",
            "__ZN13EntityAITasks9classNameE",
            "__ZN20DecimalFormatSymbols9classNameE",
            "__ZN20C01PacketChatMessage9classNameE",
            "__ZN3URI9classNameE",
            "__ZN23FieldPosition_interface9classNameE",
            "__ZN16EntityLookHelper9classNameE",
            "__ZN13AxisAlignedBB9classNameE",
            "__ZN26S3DPacketDisplayScoreboard9classNameE",
            "__ZN4Pipe9classNameE",
            "__ZN21GraphicsConfiguration9classNameE",
            "__ZN22RecordComponentVisitor9classNameE",
            "__ZN32ChunkCompileTaskGenerator_Status9classNameE",
            "__ZN4Long9classNameE",
            "__ZN39PageAttributes_OrientationRequestedType9classNameE",
            "__ZN24SimpleClassTypeSignature9classNameE",
            "__ZN10ValueRange9classNameE",
            "__ZN14RenderingHints9classNameE",
            "__ZN8GenLayer9classNameE",
            "__ZN10Executable9classNameE",
            "__ZN16BaseAttributeMap9classNameE",
            "__ZN28MinecraftProfileTexture_Type9classNameE",
            "__ZN10DataBuffer9classNameE",
            "__ZN14AlphaColorPipe9classNameE",
            "__ZN14RegionIterator9classNameE",
            "__ZN13BufferedImage9classNameE",
            "__ZN11IBlockState9classNameE",
            "__ZN7Library9classNameE",
            "__ZN20S0CPacketSpawnPlayer9classNameE",
            "__ZN20DateTimeParseContext9classNameE",
            "__ZN18MostRecentKeyValue9classNameE",
            "__ZN20StructureBoundingBox9classNameE",
            "__ZN26S2CPacketSpawnGlobalEntity9classNameE",
            "__ZN13EntityHanging9classNameE",
            "__ZN26MethodHandleImpl_Intrinsic9classNameE",
            "__ZN9SortedMap9classNameE",
            "__ZN14MethodAccessor9classNameE",
            "__ZN15IBorderListener9classNameE",
            "__ZN11INetHandler9classNameE",
            "__ZN12CalendarDate9classNameE",
            "__ZN5Event9classNameE",
            "__ZN22HashMap_Node_interface9classNameE",
            "__ZN13ShaderUniform9classNameE",
            "__ZN15EnumFacing_Axis9classNameE",
            "__ZN27BiomeGenBase_SpawnListEntry9classNameE",
            "__ZN12RenderPlayer9classNameE",
            "__ZN25BaseAuthenticationService9classNameE",
            "__ZN20Class_AnnotationData9classNameE",
            "__ZN13PriorityQueue9classNameE",
            "__ZN16ReadableVector4f9classNameE",
            "__ZN20S0DPacketCollectItem9classNameE",
            "__ZN59ObjectStreamClass_DeserializationConstructorsCache_Key_Impl9classNameE",
            "__ZN9IStatType9classNameE",
            "__ZN8Consumer9classNameE",
            "__ZN19WeightedRandom_Item9classNameE",
            "__ZN11Conditional9classNameE",
            "__ZN20EnumPlayerModelParts9classNameE",
            "__ZN16BooleanSignature9classNameE",
            "__ZN14CharsetEncoder9classNameE",
            "__ZN25Class_EnclosingMethodInfo9classNameE",
            "__ZN10DateFormat9classNameE",
            "__ZN8Wildcard9classNameE",
            "__ZN12AbstractList9classNameE",
            "__ZN6Source9classNameE",
            "__ZN14Externalizable9classNameE",
            "__ZN19DragGestureListener9classNameE",
            "__ZN13DrawImagePipe9classNameE",
            "__ZN10Scoreboard9classNameE",
            "__ZN13EventListener9classNameE",
            "__ZN6Method9classNameE",
            "__ZN25ModuleDescriptor_Requires9classNameE",
            "__ZN12DecimalStyle9classNameE",
            "__ZN27AttributedCharacterIterator9classNameE",
            "__ZN26ConcurrentLinkedQueue_Node9classNameE",
            "__ZN7Channel9classNameE",
            "__ZN5Field9classNameE",
            "__ZN3Gui9classNameE",
            "__ZN13ImageObserver9classNameE",
            "__ZN14EnumDifficulty9classNameE",
            "__ZN7Reifier9classNameE",
            "__ZN18C0APacketAnimation9classNameE",
            "__ZN13ShaderDefault9classNameE",
            "__ZN10AtomicLong9classNameE",
            "__ZN11EventFilter9classNameE",
            "__ZN23TemporalField_interface9classNameE",
            "__ZN16ReadableVector2f9classNameE",
            "__ZN14EntityFireball9classNameE",
            "__ZN12DoubleStream9classNameE",
            "__ZN16RuntimeException9classNameE",
            "__ZN13SunGraphics2D9classNameE",
            "__ZN24PageAttributes_MediaType9classNameE",
            "__ZN16Thread_interface9classNameE",
            "__ZN17LongUnaryOperator9classNameE",
            "__ZN20ZoneOffsetTransition9classNameE",
            "__ZN19ReferenceQueue_Lock9classNameE",
            "__ZN27Window_WindowDisposerRecord9classNameE",
            "__ZN14ClippingHelper9classNameE",
            "__ZN7Village9classNameE",
            "__ZN16SimpleDateFormat9classNameE",
            "__ZN19ServerSocketChannel9classNameE",
            "__ZN7Instant9classNameE",
            "__ZN11GameProfile9classNameE",
            "__ZN4Perf9classNameE",
            "__ZN14ResourceBundle9classNameE",
            "__ZN9IntStream9classNameE",
            "__ZN6Stream9classNameE",
            "__ZN14Gregorian_Date9classNameE",
            "__ZN8Multimap9classNameE",
            "__ZN15IProgressUpdate9classNameE",
            "__ZN6Render9classNameE",
            "__ZN9Predicate9classNameE",
            "__ZN19FieldNamingStrategy9classNameE",
            "__ZN5Image9classNameE",
            "__ZN9VarHandle9classNameE",
            "__ZN25BiomeGenBase_TempCategory9classNameE",
            "__ZN11CoderResult9classNameE",
            "__ZN16ProtectionDomain9classNameE",
            "__ZN10Accessible9classNameE",
            "__ZN12FontRenderer9classNameE",
            "__ZN15VillageDoorInfo9classNameE",
            "__ZN18LinkedTreeMap_Node9classNameE",
            "__ZN26JsonDeserializationContext9classNameE",
            "__ZN10PathFinder9classNameE",
            "__ZN15IndexColorModel9classNameE",
            "__ZN15RenderingEngine9classNameE",
            "__ZN12EntityAnimal9classNameE",
            "__ZN18TypeAdapterFactory9classNameE",
            "__ZGVZN5oatpp4data7mapping4type7__class8PairListINS2_6StringENS2_3AnyEE7getTypeEvE4type",
            "__ZN31PageAttributes_PrintQualityType9classNameE",
            "__ZN18Pipe_SourceChannel9classNameE",
            "__ZN16InputMethodEvent9classNameE",
            "__ZN27ObjectStreamField_interface9classNameE",
            "__ZN32ThreadLocal_ThreadLocalMap_Entry9classNameE",
            "__ZN10ByteVector9classNameE",
            "__ZN25DateFormatSymbolsProvider9classNameE",
            "__ZN14AccessibleText9classNameE",
            "__ZN50ReentrantReadWriteLock_Sync_ThreadLocalHoldCounter9classNameE",
            "__ZN10IPBanEntry9classNameE",
            "__ZN14EntityPlayerSP9classNameE",
            "__ZN11AAShapePipe9classNameE",
            "__ZN11Spliterator9classNameE",
            "__ZN17DrawParallelogram9classNameE",
            "__ZN33ObjectInputStream_PeekInputStream9classNameE",
            "__ZN11Enumeration9classNameE",
            "__ZN21PixelToShapeConverter9classNameE",
            "__ZN30ObjectOutputStream_HandleTable9classNameE",
            "__ZN21Pattern_CharPredicate9classNameE",
            "__ZN3CRL9classNameE",
            "__ZN22DateTimeParseException9classNameE",
            "__ZN17DateTimeFormatter9classNameE",
            "__ZN14AnnotationType9classNameE",
            "__ZN9Clipboard9classNameE",
            "__ZN21ChannelHandlerAdapter9classNameE",
            "__ZN11WeakHashMap9classNameE",
            "__ZN22WorldSettings_GameType9classNameE",
            "__ZN32C10PacketCreativeInventoryAction9classNameE",
            "__ZN17IJsonSerializable9classNameE",
            "__ZN24UnmodifiableListIterator9classNameE",
            "__ZN21CertificateFactorySpi9classNameE",
            "__ZN4Lock9classNameE",
            "__ZN5Agent9classNameE",
            "__ZN20Block_EnumOffsetType9classNameE",
            "__ZN24ScopedMemoryAccess_Scope9classNameE",
            "__ZN13CommandObject9classNameE",
            "__ZN18ArrayTypeSignature9classNameE",
            "__ZN18DateFormatProvider9classNameE",
            "__ZN14VoidDescriptor9classNameE",
            "__ZN38IScoreObjectiveCriteria_EnumRenderType9classNameE",
            "__ZN11JsonElement9classNameE",
            "__ZN10Permission9classNameE",
            "__ZN13CommandThread9classNameE",
            "__ZN6Potion9classNameE",
            "__ZN24ModuleDescriptor_Version9classNameE",
            "__ZN14EntityRenderer9classNameE",
            "__ZN15LocaleResources9classNameE",
            "__ZN22MidiChannel_FadeThread9classNameE",
            "__ZN25Hashtable_Entry_interface9classNameE",
            "__ZN16IResourceManager9classNameE",
            "__ZN10LambdaForm9classNameE",
            "__ZN9Closeable9classNameE",
            "__ZN12EntityLiving9classNameE",
            "__ZN10MapStorage9classNameE",
            "__ZN32ObjectStreamClass_FieldReflector9classNameE",
            "__ZN8Profiler9classNameE",
            "__ZN54ObjectStreamClass_DeserializationConstructorsCache_Key9classNameE",
            "__ZN27VectorSupport_VectorSpecies9classNameE",
            "__ZN4Vec39classNameE",
            "__ZN12GuiSpectator9classNameE",
            "__ZN14NBTTagCompound9classNameE",
            "__ZN4File9classNameE",
            "__ZN12MethodWriter9classNameE",
            "__ZN10BigInteger9classNameE",
            "__ZN17CharacterIterator9classNameE",
            "__ZN6Window9classNameE",
            "__ZN24ClassValue_ClassValueMap9classNameE",
            "__ZN4Gson9classNameE",
            "__ZN14BiomeDecorator9classNameE",
            "__ZN19WritableByteChannel9classNameE",
            "__ZN26Provider_EngineDescription9classNameE",
            "__ZN10ClassValue9classNameE",
            "__ZN17ImageCapabilities9classNameE",
            "__ZN28AbstractClassLoaderValue_Sub9classNameE",
            "__ZN18UserAuthentication9classNameE",
            "__ZN21LocaleProviderAdapter9classNameE",
            "__ZN7NBTBase9classNameE",
            "__ZN6Unsafe9classNameE",
            "__ZN19LinkedHashMap_Entry9classNameE",
            "__ZN13Interruptible9classNameE",
            "__ZN16AppContext_State9classNameE",
            "__ZN13MenuContainer9classNameE",
            "__ZN11Tessellator9classNameE",
            "__ZN20AbstractClientPlayer9classNameE",
            "__ZN18JavaSecurityAccess9classNameE",
            "__ZN13PlayerManager9classNameE",
            "__ZN20SoundSystemException9classNameE",
            "__ZN18ScoreboardSaveData9classNameE",
            "__ZN19TimeZoneNamesBundle9classNameE",
            "__ZN11FileNameMap9classNameE",
            "__ZN14BlockEventData9classNameE",
            "__ZN11MouseHelper9classNameE",
            "__ZN17S0FPacketSpawnMob9classNameE",
            "__ZN21ModelResourceLocation9classNameE",
            "__ZN9SoundList9classNameE",
            "__ZN19ISoundEventAccessor9classNameE",
            "__ZN31EntityLiving_SpawnPlacementType9classNameE",
            "__ZN21MimeTypeParameterList9classNameE",
            "__ZN21C16PacketClientStatus9classNameE",
            "__ZN19Dialog_ModalityType9classNameE",
            "__ZN8MapColor9classNameE",
            "__ZN3URL9classNameE",
            "__ZN23TemporalQuery_interface9classNameE",
            "__ZN8Temporal9classNameE",
            "__ZN42MethodHandles_Lookup_ClassOption_interface9classNameE",
            "__ZN8Ordering9classNameE",
            "__ZN17ParameterizedType9classNameE",
            "__ZN7Wrapper9classNameE",
            "__ZN17IntBinaryOperator9classNameE",
            "__ZN8Supplier9classNameE",
            "__ZN14WorldSavedData9classNameE",
            "__ZN14PlatformLogger9classNameE",
            "__ZN9LocalDate9classNameE",
            "__ZN19GuiPlayerTabOverlay9classNameE",
            "__ZN19DragSourceDropEvent9classNameE",
            "__ZN17ComponentListener9classNameE",
            "__ZN31PlayerProfileCache_ProfileEntry9classNameE",
            "__ZN13TextureOffset9classNameE",
            "__ZN18DrawGlyphListColor9classNameE",
            "__ZN10BlockState9classNameE",
            "__ZN15GuiOverlayDebug9classNameE",
            "__ZN15File_PathStatus9classNameE",
            "__ZN23CommandResultStats_Type9classNameE",
            "__ZN15AttributeValues9classNameE",
            "__ZN9ModelBase9classNameE",
            "__ZN26ServerConfigurationManager9classNameE",
            "__ZN12IChunkLoader9classNameE",
            "__ZN13FieldAccessor9classNameE",
            "__ZN6String9classNameE",
            "__ZN12EntitySenses9classNameE",
            "__ZN22ResourcePackRepository9classNameE",
            "__ZN12HashMap_Node9classNameE",
            "__ZN9WorldType9classNameE",
            "__ZN17DateFormatSymbols9classNameE",
            "__ZN11GsonBuilder9classNameE",
            "__ZN13ByteSignature9classNameE",
            "__ZN20StateTrackable_State9classNameE",
            "__ZN12NamedPackage9classNameE",
            "__ZN15BufferedImageOp9classNameE",
            "__ZN14AccessibleRole9classNameE",
            "__ZN6Joiner9classNameE",
            "__ZN23S09PacketHeldItemChange9classNameE",
            "__ZN17EnumParticleTypes9classNameE",
            "__ZN24PublicMethods_MethodList9classNameE",
            "__ZN16EntityJumpHelper9classNameE",
            "__ZN12FwDispatcher9classNameE",
            "__ZN13ZonedDateTime9classNameE",
            "__ZN10EnumRarity9classNameE",
            "__ZN15ExecutorService9classNameE",
            "__ZN23AtomicMarkableReference9classNameE",
            "__ZN14StatisticsFile9classNameE",
            "__ZN22ITickableTextureObject9classNameE",
            "__ZN6Entity9classNameE",
            "__ZN8Vector3D9classNameE",
            "__ZN12ModuleReader9classNameE",
            "__ZN3Key9classNameE",
            "__ZN15Label_interface9classNameE",
            "__ZN15DropTargetEvent9classNameE",
            "__ZN5Timer9classNameE",
            "__ZN8Material9classNameE",
            "__ZN15ModuleReference9classNameE",
            "__ZN19EnumPacketDirection9classNameE",
            "__ZN17Rectangle2D_Float9classNameE",
            "__ZN16CalendarProvider9classNameE",
            "__ZN21ContentHandlerFactory9classNameE",
            "__ZN15DatagramChannel9classNameE",
            "__ZN9Rectangle9classNameE",
            "__ZN20MovingObjectPosition9classNameE",
            "__ZN31JavaTimeDateTimePatternProvider9classNameE",
            "__ZN20Format_FieldDelegate9classNameE",
            "__ZN9BakedQuad9classNameE",
            "__ZN10DropTarget9classNameE",
            "__ZN20LambdaForm_BasicType9classNameE",
            "__ZN13PixelDrawPipe9classNameE",
            "__ZN20UrlDeserializedState9classNameE",
            "__ZN17ParallelogramPipe9classNameE",
            "__ZN20ServerStatusResponse9classNameE",
            "__ZN21ImmutableList_Builder9classNameE",
            "__ZN17ObjectStreamField9classNameE",
            "__ZN12GlyphMetrics9classNameE",
            "__ZN27C19PacketResourcePackStatus9classNameE",
            "__ZN16ByteBufAllocator9classNameE",
            "__ZN20AbstractSelectionKey9classNameE",
            "__ZN19NumericShaper_Range9classNameE",
            "__ZN6ICodec9classNameE",
            "__ZN13Authenticator9classNameE",
            "__ZN17BaseCalendar_Date9classNameE",
            "__ZN14Minecraft_Test9classNameE",
            "__ZN15RetentionPolicy9classNameE",
            "__ZN22C17PacketCustomPayload9classNameE",
            "__ZN5Shape9classNameE",
            "__ZN27WeakHashMap_Entry_interface9classNameE",
            "__ZN13ReadWriteLock9classNameE",
            "__ZN27S32PacketConfirmTransaction9classNameE",
            "__ZN27S3CPacketUpdateScore_Action9classNameE",
            "__ZN11CoreMetrics9classNameE",
            "__ZN16Pattern_BitClass9classNameE",
            "__ZZN5oatpp4data7mapping4type7__class8PairListINS2_6StringENS2_3AnyEE7getTypeEvE4type",
            "__ZN5arr_B9classNameE",
            "__ZN26LocaleProviderAdapter_Type9classNameE",
            "__ZN25IndexOutOfBoundsException9classNameE",
            "__ZN20S0EPacketSpawnObject9classNameE",
            "__ZN20VarHandle_AccessType9classNameE",
            "__ZN24JsonSerializationContext9classNameE",
            "__ZN24EnumFacing_AxisDirection9classNameE",
            "__ZN18CertificateFactory9classNameE",
            "__ZN11PrintStream9classNameE",
            "__ZN12MethodHandle9classNameE",
            "__ZN11DisplayMode9classNameE",
            "__ZN23S19PacketEntityHeadLook9classNameE",
            "__ZN8Provider9classNameE",
            "__ZN17Point2D_interface9classNameE",
            "__ZN21ConcurrentLinkedQueue9classNameE",
            "__ZN11CombatEntry9classNameE",
            "__ZN17CharToGlyphMapper9classNameE",
            "__ZN6IsoEra9classNameE",
            "__ZN13EntityTracker9classNameE",
            "__ZN5Until9classNameE",
            "__ZN15Class_interface9classNameE",
            "__ZN29C07PacketPlayerDigging_Action9classNameE",
            "__ZN26IReloadableResourceManager9classNameE",
            "__ZN13LinkedTreeMap9classNameE",
            "__ZN13TreeMap_Entry9classNameE",
            "__ZN12Format_Field9classNameE",
            "__ZN14Enum_interface9classNameE",
            "__ZN14EntityCreature9classNameE",
            "__ZN27S44PacketWorldBorder_Action9classNameE",
            "__ZN25ModuleDescriptor_Provides9classNameE",
            "__ZN21C0BPacketEntityAction9classNameE",
            "__ZN12AttributeKey9classNameE",
            "__ZN17ChunkRenderWorker9classNameE",
            "__ZN19ConstructorAccessor9classNameE",
            "__ZN16Joiner_MapJoiner9classNameE",
            "__ZN11MidiChannel9classNameE",
            "__ZN10ServerData9classNameE",
            "__ZN8Sequence9classNameE",
            "__ZN12PaintContext9classNameE",
            "__ZN17IStatStringFormat9classNameE",
            "__ZN11MetaMessage9classNameE",
            "__ZN20ComponentOrientation9classNameE",
            "__ZN8ItemFood9classNameE",
            "__ZN14InventoryBasic9classNameE",
            "__ZN9TimerTask9classNameE",
            "__ZN31EntityPlayer_EnumChatVisibility9classNameE",
            "__ZN42ScopedMemoryAccess_Scope_ScopedAccessError9classNameE",
            "__ZN8TextPipe9classNameE",
            "__ZN23HierarchyBoundsListener9classNameE",
            "__ZN20GatheringByteChannel9classNameE",
            "__ZN19ChunkProviderServer9classNameE",
            "__ZN20S44PacketWorldBorder9classNameE",
            "__ZN14CharsetDecoder9classNameE",
            "__ZN24LambdaForm_NamedFunction9classNameE",
            "__ZN16SocketPermission9classNameE",
            "__ZN18S2APacketParticles9classNameE",
            "__ZN28AtomicMarkableReference_Pair9classNameE",
            "__ZN10NBTTagList9classNameE",
            "__ZN29FormalTypeParameter_interface9classNameE",
            "__ZN6Cursor9classNameE",
            "__ZN9JsonToken9classNameE",
            "__ZN10FontStrike9classNameE",
            "__ZN27StackTraceElement_interface9classNameE",
            "__ZN19ImmutableCollection9classNameE",
            "__ZN41ObjectInputStream_ValidationList_Callback9classNameE",
            "__ZN31AbstractQueuedSynchronizer_Node9classNameE",
            "__ZN23MinecraftProfileTexture9classNameE",
            "__ZN13WorldSettings9classNameE",
            "__ZN14TileEntitySign9classNameE",
            "__ZN10ByteBuffer9classNameE",
            "__ZN8MimeType9classNameE",
            "__ZN12SocketOption9classNameE",
            "__ZN16EnumCreatureType9classNameE",
            "__ZN31GraphicsConfiguration_interface9classNameE",
            "__ZN8PrintJob9classNameE",
            "__ZN18S27PacketExplosion9classNameE",
            "__ZN18AbstractChronology9classNameE",
            "__ZN8CertPath9classNameE",
            "__ZN14ContainerEvent9classNameE",
            "__ZN27DataWatcher_WatchableObject9classNameE",
            "__ZN18LongBinaryOperator9classNameE",
            "__ZN13TextAttribute9classNameE",
            "__ZN16LambdaFormEditor9classNameE",
            "__ZN16BlockModelShapes9classNameE",
            "__ZN12SoundHandler9classNameE",
            "__ZN25S35PacketUpdateTileEntity9classNameE",
            "__ZN12IIconCreator9classNameE",
            "__ZN8Multiset9classNameE",
            "__ZN9ICrafting9classNameE",
            "__ZN21ObjectInputValidation9classNameE",
            "__ZN7MapData9classNameE",
            "__ZN15SecurityManager9classNameE",
            "__ZN19WindowStateListener9classNameE",
            "__ZN8Calendar9classNameE",
            "__ZN16IntHashMap_Entry9classNameE",
            "__ZN13IResourcePack9classNameE",
            "__ZN11Achievement9classNameE",
            "__ZN13SecondaryLoop9classNameE",
            "__ZN21AbstractStringBuilder9classNameE",
            "__ZN19S45PacketTitle_Type9classNameE",
            "__ZN27InetAddress_CachedLocalHost9classNameE",
            "__ZN14NoiseGenerator9classNameE",
            "__ZN15Block_SoundType9classNameE",
            "__ZN18S0BPacketAnimation9classNameE",
            "__ZN28ClassSpecializer_SpeciesData9classNameE",
            "__ZN11Window_Type9classNameE",
            "__ZN15S14PacketEntity9classNameE",
            "__ZN13StringBuilder9classNameE",
            "__ZN29JobAttributes_DestinationType9classNameE",
            "__ZN13ParsePosition9classNameE",
            "__ZN22OpenListResourceBundle9classNameE",
            "__ZN8Language9classNameE",
            "__ZN41ServicesCatalog_ServiceProvider_interface9classNameE",
            "__ZN10AppContext9classNameE",
            "__ZN19System_Logger_Level9classNameE",
            "__ZN16SurfaceDataProxy9classNameE",
            "__ZN13SoftReference9classNameE",
            "__ZN17FontRenderContext9classNameE",
            "__ZN16AnnotationWriter9classNameE",
            "__ZN20UnmodifiableIterator9classNameE",
            "__ZN20Permission_interface9classNameE",
            "__ZN17WeakHashMap_Entry9classNameE",
            "__ZN7Session9classNameE",
            "__ZN21PlatformLogger_Bridge9classNameE",
            "__ZN18BlockModelRenderer9classNameE",
            "__ZN15MouseWheelEvent9classNameE",
            "__ZN19AccessibleComponent9classNameE",
            "__ZN12ModuleFinder9classNameE",
            "__ZN17UserListWhitelist9classNameE",
            "__ZN9PeerEvent9classNameE",
            "__ZN17SpanShapeRenderer9classNameE",
            "__ZN9Sequencer9classNameE",
            "__ZN13ShaderManager9classNameE",
            "__ZN17SocketImplFactory9classNameE",
            "__ZGVZN5oatpp4data7mapping4type7__class4ListINS2_3AnyEE7getTypeEvE4type",
            "__ZN4Team9classNameE",
            "__ZN8Duration9classNameE",
            "__ZN16CompositeContext9classNameE",
            "__ZN14S45PacketTitle9classNameE",
            "__ZN21GenericDeclRepository9classNameE",
            "__ZN16ResourceLocation9classNameE",
            "__ZN19EnumConnectionState9classNameE",
            "__ZN10TileEntity9classNameE",
            "__ZN4Tree9classNameE",
            "__ZN29VertexFormatElement_EnumUsage9classNameE",
            "__ZN11ClassReader9classNameE",
            "__ZN15BottomSignature9classNameE",
            "__ZN12CreativeTabs9classNameE",
            "__ZN16GenericArrayType9classNameE",
            "__ZN18ClassCastException9classNameE",
            "__ZN9Condition9classNameE",
            "__ZN8MaskFill9classNameE",
            "__ZN11CharMatcher9classNameE",
            "__ZN16CollatorProvider9classNameE",
            "__ZN16IntUnaryOperator9classNameE",
            "__ZN11LongHashMap9classNameE",
            "__ZN12SpanIterator9classNameE",
            "__ZN23S12PacketEntityVelocity9classNameE",
            "__ZN18DragSourceListener9classNameE",
            "__ZN6ZoneId9classNameE",
            "__ZN22ServiceLoader_Provider9classNameE",
            "__ZN14IChatComponent9classNameE",
            "__ZN8BanEntry9classNameE",
            "__ZN25HttpAuthenticationService9classNameE",
            "__ZN11Framebuffer9classNameE",
            "__ZN27SoundEventAccessorComposite9classNameE",
            "__ZN12FieldVisitor9classNameE",
            "__ZN14StackFrameInfo9classNameE",
            "__ZN33GraphicsPrimitive_GeneralBinaryOp9classNameE",
            "__ZN15FieldRepository9classNameE",
            "__ZN18ISpectatorMenuView9classNameE",
            "__ZN13Point2D_Float9classNameE",
            "__ZN39ReentrantReadWriteLock_Sync_HoldCounter9classNameE",
            "__ZN17AccessibleContext9classNameE",
            "__ZN13AtomicInteger9classNameE",
            "__ZN11EntityHorse9classNameE",
            "__ZN18CommandResultStats9classNameE",
            "__ZN17ObjectInputFilter9classNameE",
            "__ZN19S03PacketTimeUpdate9classNameE",
            "__ZN14NBTSizeTracker9classNameE",
            "__ZN18NumberFormat_Style9classNameE",
            "__ZN13ServiceLoader9classNameE",
            "__ZN12InputContext9classNameE",
            "__ZN24AbstractClassLoaderValue9classNameE",
            "__ZN6Reader9classNameE",
            "__ZN19ThreadLanServerPing9classNameE",
            "__ZN25S22PacketMultiBlockChange9classNameE",
            "__ZN16HashMap_TreeNode9classNameE",
            "__ZN22ResourceBundle_Control9classNameE",
            "__ZN23C15PacketClientSettings9classNameE",
            "__ZN26S42PacketCombatEvent_Event9classNameE",
            "__ZN27ImmutableCollection_Builder9classNameE",
            "__ZN10EnumAction9classNameE",
            "__ZN8JsonNull9classNameE",
            "__ZN47DateTimeFormatterBuilder_CompositePrinterParser9classNameE",
            "__ZN18ScopedMemoryAccess9classNameE",
            "__ZN13WorldGenTrees9classNameE",
            "__ZN8FillPath9classNameE",
            "__ZN18PlayerControllerMP9classNameE",
            "__ZN21S1BPacketEntityAttach9classNameE",
            "__ZN20EAttribute_interface9classNameE",
            "__ZN11BasicStroke9classNameE",
            "__ZN11SampleModel9classNameE",
            "__ZN27S11PacketSpawnExperienceOrb9classNameE",
            "__ZN14RegistrySimple9classNameE",
            "__ZN14AlphaComposite9classNameE",
            "__ZN47PropertyChangeSupport_PropertyChangeListenerMap9classNameE",
            "__ZN7HashMap9classNameE",
            "__ZN22AbstractSequentialList9classNameE",
            "__ZN10KeyBinding9classNameE",
            "__ZN7EnumSet9classNameE",
            "__ZN18ReentrantLock_Sync9classNameE",
            "__ZN12ListIterator9classNameE",
            "__ZN32ConcurrentHashMap_Node_interface9classNameE",
            "__ZN24RegionRenderCacheBuilder9classNameE",
            "__ZN12IImageBuffer9classNameE",
            "__ZN29ServerData_ServerResourceMode9classNameE",
            "__ZN20NetHandlerPlayClient9classNameE",
            "__ZN13BlockingQueue9classNameE",
            "__ZN17CommandBlockLogic9classNameE",
            "__ZN20JavaLangInvokeAccess9classNameE",
            "__ZN16MethodHandleInfo9classNameE",
            "__ZN16AccessibleAction9classNameE",
            "__ZN10Dictionary9classNameE",
            "__ZN28IllegalMonitorStateException9classNameE",
            "__ZN14ClipboardOwner9classNameE",
            "__ZN31ServicesCatalog_ServiceProvider9classNameE",
            "__ZN13NativeLibrary9classNameE",
            "__ZN13ShapeDrawPipe9classNameE",
            "__ZN11FieldWriter9classNameE",
            "__ZN24S13PacketDestroyEntities9classNameE",
            "__ZN12ModelManager9classNameE",
            "__ZN10InputEvent9classNameE",
            "__ZN30BufImgSurfaceData_ICMColorData9classNameE",
            "__ZN10HoverEvent9classNameE",
            "__ZN12Path2D_Float9classNameE",
            "__ZN11PerfCounter9classNameE",
            "__ZN9IInvBasic9classNameE",
            "__ZN40SunDropTargetContextPeer_EventDispatcher9classNameE",
            "__ZN13ModuleVisitor9classNameE",
            "__ZN14PixelConverter9classNameE",
            "__ZN10JsonWriter9classNameE",
            "__ZN25DatagramSocketImplFactory9classNameE",
            "__ZN15S43PacketCamera9classNameE",
            "__ZN22ReentrantReadWriteLock9classNameE",
            "__ZN5arr_S9classNameE",
            "__ZN15CalendarBuilder9classNameE",
            "__ZN24S2BPacketChangeGameState9classNameE",
            "__ZN17SelectableChannel9classNameE",
            "__ZN13SetVisibility9classNameE",
            "__ZN15Block_interface9classNameE",
            "__ZN33SkinManager_SkinAvailableCallback9classNameE",
            "__ZN16MethodRepository9classNameE",
            "__ZN10IAttribute9classNameE",
            "__ZN15DragSourceEvent9classNameE",
            "__ZN38ObjectInputStream_BlockDataInputStream9classNameE",
            "__ZN37MovingObjectPosition_MovingObjectType9classNameE",
            "__ZN12OutputStream9classNameE",
            "__ZN8Runnable9classNameE",
            "__ZN6Path2D9classNameE",
            "__ZN12SoundManager9classNameE",
            "__ZN18BufferCapabilities9classNameE",
            "__ZN14ActionListener9classNameE",
            "__ZN11ViewFrustum9classNameE",
            "__ZN13CompositePipe9classNameE",
            "__ZN33MethodHandles_Lookup_ClassDefiner9classNameE",
            "__ZN10BaseLocale9classNameE",
            "__ZN6Matrix9classNameE",
            "__ZN29LambdaFormEditor_TransformKey9classNameE",
            "__ZN3Set9classNameE",
            "__ZN18AccessibleRelation9classNameE",
            "__ZN23MinecraftSessionService9classNameE",
            "__ZN15SocketException9classNameE",
            "__ZN13TemporalQuery9classNameE",
            "__ZN14JavaLangAccess9classNameE",
            "__ZN32ObjectInputStream_ValidationList9classNameE",
            "__ZN9IRegistry9classNameE",
            "__ZN17GraphicsPrimitive9classNameE",
            "__ZN18AbstractRepository9classNameE",
            "__ZN13SocketAddress9classNameE",
            "__ZN4Void9classNameE",
            "__ZN12ObjectOutput9classNameE"
          ]
        },
        "text": {
          "global": [
            "__ZN20InputMethodHighlight10f_selectedEv",
            "__ZN12MethodWriter18hasAsmInstructionsEv",
            "__ZN4File8f_UNSAFEEv",
            "__ZN12NumberFormat18f_maxIntegerDigitsEv",
            "__ZN10CharBuffer7isEmptyEv",
            "__ZN20GameSettings_Options20f_STREAM_COMPRESSIONEv",
            "__ZN20StructureBoundingBox8expandToES_",
            "__ZN9WorldInfo12f_thunderingEv",
            "__ZN12FontRenderer13isFormatColorEc",
            "__ZN4Date8setHoursEi",
            "__ZN14ResourceBundle19getBundleFromModuleE5Class6Module6String6Locale22ResourceBundle_Control",
            "__ZN12StringBuffer14codePointCountEii",
            "__ZN26ServerConfigurationManager12f_maxPlayersEv",
            "__ZN21PropertyChangeSupport18firePropertyChangeE6String6ObjectS1_",
            "__ZN11MidiChannel10setLoopingEb",
            "__ZN15LambdaForm_Name11paramStringEv",
            "__ZN21ChunkProviderSettings19f_lapisCenterHeightEv",
            "__ZN4File13f_PATH_OFFSETEv",
            "__ZN5Block16f_soundTypeAnvilEv",
            "__ZN31ObjectOutputStream_PutFieldImpl3putE6Stringh",
            "__ZN8TimeZone12getRawOffsetEv",
            "__ZN13ModelRenderer9f_offsetXEv",
            "__ZN16LambdaFormEditor17foldArgumentsFormEib10MethodType",
            "__ZN7Toolkit7initIDsEv",
            "__ZN21AbstractStringBuilder7reverseEv",
            "__ZN17ShapeSpanIterator7disposeEv",
            "__ZN8BlockPos4downEv",
            "__ZN8MenuItem14deleteShortcutE12MenuShortcut",
            "__ZN7ByteBuf9readBytesE12OutputStreami",
            "__ZN10MemberName11isProtectedEv",
            "__ZN11CrashReport7f_causeEv",
            "__ZN7Charset6lookupE6String",
            "__ZN9Character36f_DIRECTIONALITY_PARAGRAPH_SEPARATOREv",
            "__ZN10JsonReader9isLiteralEc",
            "__ZN12DoubleBuffer5clearEv",
            "__ZN7Instant9plusNanosEl",
            "__ZN5oatpp4base9CountableD0Ev",
            "__ZN13StreamEncoder5writeE6Stringii",
            "__ZN6Font2D13getUnitsPerEmEv",
            "__ZN6Window13f_alwaysOnTopEv",
            "__ZN9Component23getComponentOrientationEv",
            "__ZN5World14scheduleUpdateE8BlockPos5Blocki",
            "__ZN10FontStrike8f_italicEv",
            "__ZN20DateTimeParseContext11f_formatterEv",
            "__ZN10MemberName4initE5Class6String6Objecti",
            "__ZN23CommandResultStats_Type7valueOfE6String",
            "__ZN11SurfaceType16f_DESC_BYTE_GRAYEv",
            "__ZN7Village18updateNumVillagersEv",
            "__ZN8TimeUnit14f_SECOND_SCALEEv",
            "__ZN10ColorModel22f_isAlphaPremultipliedEv",
            "__ZN11ThreadGroup17checkParentAccessES_",
            "__ZN19ServerSocketChannel8validOpsEv",
            "__ZN16ForwardingObject8toStringEv",
            "__ZN20GameSettings_Options7valueOfE6String",
            "__ZN12NumberFormat18getIntegerInstanceEv",
            "__ZN8Vector3f5angleES_S_",
            "__ZN9Component12f_backgroundEv",
            "__ZN19VertexFormatElement6equalsE6Object",
            "__ZN11SoundSystem9loadSoundE3URL6String",
            "__ZN17CommandBlockLogic15getSuccessCountEv",
            "__ZN9Component6f_LOCKEv",
            "__ZN11InputStream10skipNBytesEl",
            "__ZN19ChunkProviderServer8populateE14IChunkProviderii",
            "__ZN15RetentionPolicy7valueOfE6String",
            "__ZN25Currency_CurrencyProperty4infoE6String9Throwable",
            "__ZN11InetAddress17f_cachedLocalHostEv",
            "__ZN10JsonWriter5valueEl",
            "__ZN7TreeMap7tailMapE6Objectb",
            "__ZN17S01PacketJoinGame13getDifficultyEv",
            "__ZN13TextAttribute6f_SIZEEv",
            "__ZN6Font2D9getStrikeE14FontStrikeDescb",
            "__ZN12MenuShortcut6equalsE6Object",
            "__ZN17AccessibleContext32f_ACCESSIBLE_TABLE_MODEL_CHANGEDEv",
            "__ZN5Score12func_96648_aEv",
            "__ZN8Excluder6createE4Gson9TypeToken",
            "__ZN9GuiScreen10drawScreenEiif",
            "__ZN24PublicMethods_MethodList6lengthEv",
            "__ZN12VillageSiege15f_field_75538_hEv",
            "__ZN9GuiScreen21drawDefaultBackgroundEv",
            "__ZN10LambdaForm8f_resultEv",
            "__ZN21ChunkProviderSettings18f_biomeDepthOffSetEv",
            "__ZN13ServiceLoader23f_instantiatedProvidersEv",
            "__ZN17BoundMethodHandle15copyWithExtendIE10MethodType10LambdaFormi",
            "__ZN14PageAttributes8toStringEv",
            "__ZN16AbstractSelector8f_CLOSEDEv",
            "__ZN10BigInteger17multiplyToomCook3ES_S_",
            "__ZN10LambdaForm12constantZeroE20LambdaForm_BasicType",
            "__ZN6Unsafe13putLongOpaqueE6Objectll",
            "__ZN9ModelBase15copyModelAnglesE13ModelRendererS0_",
            "__ZN22ModuleLayer_Controller13ensureInLayerE6Module",
            "__ZN20S44PacketWorldBorder13f_warningTimeEv",
            "__ZN6Dialog18f_serialVersionUIDEv",
            "__ZN14MethodTypeForm12canonicalizeE10MethodTypei",
            "__ZN10PaintEvent11paramStringEv",
            "__ZN18ScopedMemoryAccess29getAndSetFloatReleaseInternalE24ScopedMemoryAccess_Scope6Objectlf",
            "__ZN13LocalDateTime9plusWeeksEl",
            "__ZN9Character15codePointBeforeE12CharSequencei",
            "__ZN10LinkedList18checkPositionIndexEi",
            "__ZN13ShaderDefault3setEff",
            "__ZN14EntityFishHook7f_fishYEv",
            "__ZN20C11PacketEnchantItem8f_buttonEv",
            "__ZN4Font7f_pDataEv",
            "__ZN13PlayerManager25f_playerInstancesToUpdateEv",
            "__ZN13ZonedDateTime19withZoneSameInstantE6ZoneId",
            "__ZN5World21f_addedTileEntityListEv",
            "__ZN9DayOfWeek7valueOfE6String",
            "__ZN16AnnotationWriter8visitEndEv",
            "__ZN26ServerConfigurationManager12getBannedIPsEv",
            "__ZN11GsonBuilder19registerTypeAdapterE4Type6Object",
            "__ZN7Point2D10distanceSqES_",
            "__ZNK5oatpp6parser5Caret15isAtCharFromSetEPKcl",
            "__ZN11PrintStream7printlnEf",
            "__ZN28ClassSpecializer_SpeciesData9f_gettersEv",
            "__ZN15InvocationEvent12getThrowableEv",
            "__ZN11EntityHorse15getCanSpawnHereEv",
            "__ZN13MessageHeader7prependE6StringS0_",
            "__ZN3URI18f_L_SERVER_PERCENTEv",
            "__ZN18S27PacketExplosion13processPacketE21INetHandlerPlayClient",
            "__ZN22S10PacketSpawnPainting14readPacketDataE12PacketBuffer",
            "__ZN11ChronoField18f_SECOND_OF_MINUTEEv",
            "__ZN11MidiMessage5cloneEv",
            "__ZN16MethodRepository4makeE6String15GenericsFactory",
            "__ZN9WorldInfo11setHardcoreEb",
            "__ZN13StringBuilder6appendEl",
            "__ZN19VertexFormatElement8getUsageEv",
            "__ZN15AccessibleState12f_HORIZONTALEv",
            "__ZN7Reifier10getFactoryEv",
            "__ZN15MinecraftServer18callFromMainThreadE8Callable",
            "__ZN12InputContext19setCharacterSubsetsE26Character_Subset_interface",
            "__ZN10EAttribute8toStringEv",
            "__ZN21GraphicsConfiguration29createCompatibleVolatileImageEiii",
            "__ZN12PacketBuffer11forEachByteEii16ByteBufProcessor",
            "__ZN7Integer7valueOfEi",
            "__ZN10JsonReader14f_PEEKED_FALSEEv",
            "__ZN14EntityFireball7f_xTileEv",
            "__ZN21AbstractStringBuilder11subSequenceEii",
            "__ZN22ResourceBundle_Control18f_CANDIDATES_CACHEEv",
            "__ZN16EntityLivingBase13f_cameraPitchEv",
            "__ZN8Vector2f5angleES_S_",
            "__ZN7Instant3getE13TemporalField",
            "__ZN9Component15isBackgroundSetEv",
            "__ZN11ThreadGroup13stopOrSuspendEb",
            "__ZN12BiomeGenBase13f_birchForestEv",
            "__ZN11ChronoField10adjustIntoE8Temporall",
            "__ZN3URI9compareToES_",
            "__ZN9Component18firePropertyChangeE6Stringdd",
            "__ZN24AnimationMetadataSection17getAnimationFrameEi",
            "__ZN18ItemInWorldManager10isCreativeEv",
            "__ZN7ByteBuf10readMediumEv",
            "__ZN5Color13createContextE10ColorModel9Rectangle11Rectangle2D15AffineTransform14RenderingHints",
            "__ZN5oatpp4data7mapping4type10BaseObject8PropertyC1ExPKcPKNS2_4TypeE",
            "__ZN16EntityLivingBase15f_swingProgressEv",
            "__ZN8Provider18f_serialVersionUIDEv",
            "__ZN7Boolean6f_TYPEEv",
            "__ZN6Buffer4markEv",
            "__ZN14AccessibleRole8f_SLIDEREv",
            "__ZN18DirectMethodHandle21f_NF_allocateInstanceEv",
            "__ZN17DateFormatSymbols18f_serialVersionUIDEv",
            "__ZN26DecimalFormat_FastPathData16f_firstUsedIndexEv",
            "__ZN16DataOutputStream8writeIntEi",
            "__ZN7EnumSet5rangeE4EnumS0_",
            "__ZN13Attribute_Set6f_sizeEv",
            "__ZN15MinecraftServer24getGameProfileRepositoryEv",
            "__ZN13BreakIterator19getSentenceInstanceE6Locale",
            "__ZN15LocaleResources21f_BREAK_ITERATOR_INFOEv",
            "__ZN14RenderingHints31f_VALUE_TEXT_ANTIALIAS_LCD_HBGREv",
            "__ZN32C10PacketCreativeInventoryAction8getStackEv",
            "__ZN10GuiNewChat6scrollEi",
            "__ZN14EntityPlayerSP13f_clientBrandEv",
            "__ZN12BiomeGenBase23f_spawnableCreatureListEv",
            "__ZN15AffineTransform17getRotateInstanceEddd",
            "__ZN16LambdaFormBuffer7indexOfE15LambdaForm_Name25LambdaForm_Name_interface",
            "__ZN15AccessibleState11f_FOCUSABLEEv",
            "__ZN12EntityLiving8f_sensesEv",
            "__ZN4Long13toStringUTF16Eli",
            "__ZN9DayOfWeek8f_SUNDAYEv",
            "__ZN13Point2D_Float18f_serialVersionUIDEv",
            "__ZN13NetworkSystem11f_endpointsEv",
            "__ZN27ReentrantReadWriteLock_Sync24unmatchedUnlockExceptionEv",
            "__ZN10BigDecimal16compareMagnitudeES_",
            "__ZN8KeyEvent8f_VK_F22Ev",
            "__ZN6Entity14getDataWatcherEv",
            "__ZN10MethodType24toMethodDescriptorStringEv",
            "__ZN9Hashtable8f_valuesEv",
            "__ZN11FloatBuffer5clearEv",
            "__ZN5oatpp7network7AddressC2ERKNS_4data7mapping4type6StringEtNS1_6FamilyE",
            "__ZN10LambdaForm10identity_FEf",
            "__ZN12BaseCalendar7f_APRILEv",
            "__ZN12StringBuffer6appendE5arr_Cii",
            "__ZN15AffineTransform16f_APPLY_IDENTITYEv",
            "__ZN12MethodHandle14standardStringEv",
            "__ZN5Frame32f_SAME_LOCALS_1_STACK_ITEM_FRAMEEv",
            "__ZN14DatagramSocket15setReuseAddressEb",
            "__ZN12RenderGlobal22preRenderDamagedBlocksEv",
            "__ZN14EntityRenderer18f_smoothCamFilterXEv",
            "__ZN20RendererLivingEntity12renderLayersE16EntityLivingBasefffffff",
            "__ZN5oatpp4data7mapping4type10BaseObject8Property3setEPS3_RKNS2_4VoidE",
            "__ZN10JsonObject11addPropertyE6StringS0_",
            "__ZN13LocalDateTime7getLongE13TemporalField",
            "__ZN10EAttribute25f_EINPUT_METHOD_UNDERLINEEv",
            "__ZN8JsonNull8hashCodeEv",
            "__ZN12BiomeGenBase12setBiomeNameE6String",
            "__ZN38ObjectInputStream_BlockDataInputStream11readBooleanEv",
            "__ZN15FontLineMetrics22getStrikethroughOffsetEv",
            "__ZN4File9isInvalidEv",
            "__ZN6Window31updateChildFocusableWindowStateES_",
            "__ZN12MethodHandle11asCollectorEi5Classi",
            "__ZN13BufferedImage6setRGBEiii",
            "__ZN14ScoreObjective12f_renderTypeEv",
            "__ZN18ScoreboardSaveData11scoresToNbtEv",
            "__ZN17DateTimeFormatter18withResolverFieldsE3Set",
            "__ZN8Calendar15isExternallySetEi",
            "__ZN7Instant5f_MAXEv",
            "__ZN9PathPoint7f_indexEv",
            "__ZN10LinkedList8getFirstEv",
            "__ZN7Package23getSpecificationVersionEv",
            "__ZN14NetworkManager16f_field_181125_eEv",
            "__ZN13DecimalFormat14f_fastPathDataEv",
            "__ZN21ChunkRenderDispatcher17clearChunkUpdatesEv",
            "__ZN8Currency20f_NUMERIC_CODE_SHIFTEv",
            "__ZN10LocaleData16setSupplementaryE26ParallelListResourceBundle",
            "__ZN9PeerEvent16f_PRIORITY_EVENTEv",
            "__ZN9IntBuffer9duplicateEv",
            "__ZN8EntityFX13getBlueColorFEv",
            "__ZN5Chunk18getLightSubtractedE8BlockPosi",
            "__ZN10BigInteger9remainderES_",
            "__ZN8Material8isLiquidEv",
            "__ZN18ItemInWorldManager18initializeGameTypeE22WorldSettings_GameType",
            "__ZN9Component18enableInputMethodsEb",
            "__ZN12PropertyBool15f_allowedValuesEv",
            "__ZN5Block17f_soundTypePistonEv",
            "__ZN24ModuleDescriptor_Exports8toStringEv",
            "__ZN11PrintWriter7printlnEd",
            "__ZN19ServerSocketChannel9setOptionE12SocketOption6Object",
            "__ZN8KeyEvent16f_originalSourceEv",
            "__ZN9Component20getSiblingIndexAboveEv",
            "__ZN5oatpp7network3Url6Parser16parseQueryParamsERKNS_4data7mapping4type6StringE",
            "__ZN15LambdaForm_Kind20f_PUT_SHORT_VOLATILEEv",
            "__ZN8KeyEvent11f_KEY_FIRSTEv",
            "__ZN9Component17relocateComponentEv",
            "__ZN14FontStrikeDesc7f_devTxEv",
            "__ZN13SunGraphics2D13f_strokeStateEv",
            "__ZN26ServerConfigurationManager18allowUserToConnectE13SocketAddress11GameProfile",
            "__ZN24PageAttributes_MediaType8f_ISO_C2Ev",
            "__ZN18AbstractRepository10getReifierEv",
            "__ZN12EntityLiving21setCurrentItemOrArmorEi9ItemStack",
            "__ZN10DataBuffer11f_TYPE_BYTEEv",
            "__ZN10BigInteger9oddModPowES_S_",
            "__ZN15AttributeValues12setUnderlineEi",
            "__ZN6Period6f_ZEROEv",
            "__ZN15ScorePlayerTeam16formatPlayerNameE4Team6String",
            "__ZN5Block12disableStatsEv",
            "__ZN10Properties11getPropertyE6String",
            "__ZN14EntityPlayerSP21onUpdateWalkingPlayerEv",
            "__ZN10BigInteger15bitLengthForIntEi",
            "__ZN13DecimalFormat6formatE10BigInteger12StringBuffer13FieldPosition",
            "__ZN6Unsafe7getByteE6Objectl",
            "__ZN11Enchantment15onEntityDamagedE16EntityLivingBase6Entityi",
            "__ZN18AccessibleRelation12f_LABELED_BYEv",
            "__ZN8Matrix4f4loadE11FloatBuffer",
            "__ZN11ClassWriter13newMethodTypeE6String",
            "__ZN10AtomicLong12getAndUpdateE17LongUnaryOperator",
            "__ZN4Long3maxEll",
            "__ZN10MemberName6equalsE6Object",
            "__ZN10ByteBuffer7getLongEi",
            "__ZN5Chunk15setLastSaveTimeEl",
            "__ZN27ReentrantReadWriteLock_Sync13f_firstReaderEv",
            "__ZN10DragSource27createDragGestureRecognizerE5Class9Componenti19DragGestureListener",
            "__ZN11SoundSystem16CommandLoadSoundE11SoundBuffer6String",
            "__ZN12SoundHandler12unloadSoundsEv",
            "__ZN14EntityRenderer14getShaderGroupEv",
            "__ZN13TreeMap_Entry6equalsE6Object",
            "__ZN10LambdaForm22checkInvocationCounterEv",
            "__ZN18ScopedMemoryAccess24compareAndExchangeDoubleE24ScopedMemoryAccess_Scope6Objectldd",
            "__ZN7Wrapper13f_DOUBLE_ZEROEv",
            "__ZN9TypeToken16isAssignableFromES_",
            "__ZN12SimpleThread4killEbb",
            "__ZN5oatpp3web6server13HttpProcessor9Coroutine13onRequestDoneEv",
            "__ZN9Container12canMergeSlotE9ItemStack4Slot",
            "__ZN14AccessibleRole10f_TOOL_BAREv",
            "__ZN5World13spawnParticleE17EnumParticleTypesdddddd5arr_I",
            "__ZN11SurfaceData15f_stateDelegateEv",
            "__ZN29LambdaFormEditor_TransformKey18f_PACKED_BYTE_SIZEEv",
            "__ZN6Unsafe17getShortUnalignedE6Objectlb",
            "__ZN6Unsafe27getAndBitwiseXorByteReleaseE6Objectlh",
            "__ZN6Unsafe27f_ARRAY_BOOLEAN_BASE_OFFSETEv",
            "__ZN17S01PacketJoinGame12f_difficultyEv",
            "__ZN3URL11f_tempStateEv",
            "__ZN18ScopedMemoryAccess27getAndSetIntAcquireInternalE24ScopedMemoryAccess_Scope6Objectli",
            "__ZN37SoundManager_SoundSystemStarterThread7playingE6String",
            "__ZN5oatpp6parser4json10Beautifier21setOutputStreamIOModeENS_4data6stream6IOModeE",
            "__ZN20PermissionCollection10isReadOnlyEv",
            "__ZN9ItemStack21getEnchantmentTagListEv",
            "__ZN5Image11getPropertyE6String13ImageObserver",
            "__ZN7Polygon9translateEii",
            "__ZN11Certificate12writeReplaceEv",
            "__ZN11FieldWriter16f_firstAttributeEv",
            "__ZN6Source10f_toStreamEv",
            "__ZN8DrawLine9traceWrapEv",
            "__ZN3URL14openConnectionE5Proxy",
            "__ZN28ClassSpecializer_SpeciesData15deriveClassNameEv",
            "__ZN7Pattern7inRangeEiii",
            "__ZN11ThreadLocal21f_threadLocalHashCodeEv",
            "__ZN16EnumFacing_Plane6randomE6Random",
            "__ZN11PrintWriter5printEf",
            "__ZN8Excluder13withModifiersE5arr_I",
            "__ZN24PageAttributes_MediaType12f_I_NA_LEGALEv",
            "__ZN20GameSettings_Options15snapToStepClampEf",
            "__ZN11AudioFormat12f_propertiesEv",
            "__ZN3URI7f_L_HEXEv",
            "__ZN11SoundSystem16CommandFadeOutInE6String11FilenameURLll",
            "__ZN7Wrapper11wrapperTypeE5Class",
            "__ZN5Point8toStringEv",
            "__ZN11ClassReader11f_SKIP_CODEEv",
            "__ZN5World24getDifficultyForLocationE8BlockPos",
            "__ZN9Component15f_textListenerKEv",
            "__ZN12CalendarDate14isDaylightTimeEv",
            "__ZN15ItemModelMesher9register_E4Item18ItemMeshDefinition",
            "__ZN11CrashReport13getCrashCauseEv",
            "__ZN26ServerConfigurationManager11f_bannedIPsEv",
            "__ZN23EntityPlayer_EnumStatus15f_OTHER_PROBLEMEv",
            "__ZN12AbstractList10f_modCountEv",
            "__ZN11LongHashMap13getValueByKeyEl",
            "__ZN7TreeMap17fixAfterInsertionE13TreeMap_Entry",
            "__ZN12InputContext12removeNotifyE9Component",
            "__ZN3URI8f_L_PATHEv",
            "__ZN13MessageHeader13findNextValueE6StringS0_",
            "__ZN21GraphicsConfiguration21createCompatibleImageEiii",
            "__ZN7ByteBuf10writeBytesE11InputStreami",
            "__ZN16ProtectionDomain13f_permissionsEv",
            "__ZN26AbstractQueuedSynchronizer7acquireE31AbstractQueuedSynchronizer_Nodeibbbl",
            "__ZN5World12destroyBlockE8BlockPosb",
            "__ZN18TextureAtlasSprite7getMinUEv",
            "__ZN11EntityHorse7openGUIE12EntityPlayer",
            "__ZN20DecimalFormatSymbols20getGroupingSeparatorEv",
            "__ZN6Window14addOwnedWindowE13WeakReference",
            "__ZN24PageAttributes_MediaType8f_ISO_B6Ev",
            "__ZN18AccessibleRelation19f_FLOWS_TO_PROPERTYEv",
            "__ZN13PlayerManager16f_theWorldServerEv",
            "__ZN6Entity18addEntityCrashInfoE19CrashReportCategory",
            "__ZN12NumberFormat10fastFormatEd",
            "__ZN9Component17f_RIGHT_ALIGNMENTEv",
            "__ZN10EventQueue9peekEventEv",
            "__ZN14NBTTagCompound4copyEv",
            "__ZN5Event12f_BACK_SPACEEv",
            "__ZN5Field15toGenericStringEv",
            "__ZN14StackFrameInfo17getDeclaringClassEv",
            "__ZN11EntityHorse15setHorseVariantEi",
            "__ZN18ItemInWorldManager29f_receivedFinishDiggingPacketEv",
            "__ZN14EntityRenderer17setFogColorBufferEffff",
            "__ZN23S25PacketBlockBreakAnim13processPacketE21INetHandlerPlayClient",
            "__ZN7ByteBuf13memoryAddressEv",
            "__ZN10LambdaForm16shortenSignatureE6String",
            "__ZN5World15getRainStrengthEf",
            "__ZN20DateTimeParseContext24addChronoChangedListenerE8Consumer",
            "__ZN18PlayerControllerMP13func_178892_aE5World14StatFileWriter",
            "__ZN11ShortBuffer6rewindEv",
            "__ZN13DecimalFormat15f_STATUS_LENGTHEv",
            "__ZN15MinecraftServer15f_serverRunningEv",
            "__ZN6String6charAtEi",
            "__ZN5Block23addCollisionBoxesToListE5World8BlockPos11IBlockState13AxisAlignedBB4List6Entity",
            "__ZN6String9substringEi",
            "__ZN24PageAttributes_MediaType10f_I_ISO_B6Ev",
            "__ZN7HashMap15replacementNodeE12HashMap_NodeS0_",
            "__ZN27ReentrantReadWriteLock_Sync16getReadHoldCountEv",
            "__ZN29BoundMethodHandle_Specializer13topSpeciesKeyEv",
            "__ZN12EntityLiving12canBeSteeredEv",
            "__ZN11Constructor10getFactoryEv",
            "__ZN15InventoryPlayer27getInventorySlotContainItemE4Item",
            "__ZN31ServicesCatalog_ServiceProvider8hashCodeEv",
            "__ZN19NumericShaper_Range15f_TAI_THAM_HORAEv",
            "__ZN15IndexColorModel7getRedsE5arr_B",
            "__ZN14NetworkManager8f_loggerEv",
            "__ZN7Wrapper11wrapperTypeEv",
            "__ZN13CompiledChunk12setLayerUsedE19EnumWorldBlockLayer",
            "__ZN11SkinManager17f_skinCacheLoaderEv",
            "__ZN11SoundSystem15getMasterVolumeEv",
            "__ZN21RecordComponentWriter30computeRecordComponentInfoSizeEv",
            "__ZN11ThreadGroup7destroyEv",
            "__ZN11Enchantment22f_locationEnchantmentsEv",
            "__ZN17C18PacketSpectate4f_idEv",
            "__ZN17ConcurrentHashMap16reduceKeysToLongEl14ToLongFunctionl18LongBinaryOperator",
            "__ZN16EnumCreatureType9f_AMBIENTEv",
            "__ZN26BlockFlower_EnumFlowerType7valueOfE6String",
            "__ZN24ModuleDescriptor_Builder7exportsE6String3Set",
            "__ZN12BiomeGenBase21f_height_HighPlateausEv",
            "__ZN9ArrayList6addAllE10Collection",
            "__ZN9LocalDate3nowE5Clock",
            "__ZN9GuiIngame19f_persistantChatGUIEv",
            "__ZN5World15isBlockFullCubeE8BlockPos",
            "__ZN17DateFormatSymbols18f_PATTERN_ISO_ZONEEv",
            "__ZN10FontStrike14getCharMetricsEc",
            "__ZN24SunDropTargetContextPeer10acceptDropEi",
            "__ZN7KeyPair12f_privateKeyEv",
            "__ZN17IdentityArrayList6addAllEi10Collection",
            "__ZN20NetHandlerPlayServer12onDisconnectE14IChatComponent",
            "__ZN18ScopedMemoryAccess20getAndBitwiseAndByteE24ScopedMemoryAccess_Scope6Objectlh",
            "__ZN12RenderGlobal13func_181561_aE13AxisAlignedBB",
            "__ZN5World23getRenderDistanceChunksEv",
            "__ZN14StatFileWriter13func_150870_bE8StatBase",
            "__ZN20LambdaForm_BasicType14checkBasicTypeEv",
            "__ZN10Dictionary6removeE6Object",
            "__ZN15MinecraftServer23getActiveAnvilConverterEv",
            "__ZN7HashMap16afterNodeRemovalE12HashMap_Node",
            "__ZN23BlockRendererDispatcher13getBakedModelE11IBlockState8BlockPos",
            "__ZN7Handler7f_endPcEv",
            "__ZN10LongBuffer3getEi5arr_J",
            "__ZN14EntityRenderer21renderWorldDirectionsEf",
            "__ZN26VarHandle_AccessDescriptor6f_typeEv",
            "__ZN5Chunk13func_150809_pEv",
            "__ZN12NumberFormat22f_maximumIntegerDigitsEv",
            "__ZN12FontRenderer7f_greenEv",
            "__ZN8Ordering8compoundE10Comparator",
            "__ZN9Component4getYEv",
            "__ZN12EntityPlayer11f_inventoryEv",
            "__ZN22ClassNotFoundException11writeObjectE18ObjectOutputStream",
            "__ZN5Class14getGenericInfoEv",
            "__ZN13IsoChronology6periodEiii",
            "__ZN21MimeTypeParameterList6equalsE6Object",
            "__ZN24SunDropTargetContextPeer11eventPostedE18SunDropTargetEvent",
            "__ZN31AbstractQueuedSynchronizer_Node7casPrevES_S_",
            "__ZN13SunGraphics2D9isRotatedE5arr_D",
            "__ZN16FocusEvent_Cause11f_TRAVERSALEv",
            "__ZN8ItemFood17f_itemUseDurationEv",
            "__ZN6Thread5cloneEv",
            "__ZN12SoundManager19getNormalizedVolumeE6ISound14SoundPoolEntry13SoundCategory",
            "__ZN10DragSource21f_dragSourceListenerKEv",
            "__ZN54ObjectStreamClass_DeserializationConstructorsCache_Key6lengthEv",
            "__ZN11SoundSystem20CommandRawDataStreamE11AudioFormatb6Stringfffif",
            "__ZN5Block15f_soundTypeSandEv",
            "__ZN20InputMethodHighlight8getStyleEv",
            "__ZN13DecimalFormat6formatEl12StringBuffer13FieldPosition",
            "__ZN24PublicMethods_MethodList6filterE16Method_interface6String15Class_interfaceb",
            "__ZN6Window25addPropertyChangeListenerE6String22PropertyChangeListener",
            "__ZN8Graphics8drawLineEiiii",
            "__ZN9TypeToken10typeEqualsE17ParameterizedTypeS0_3Map",
            "__ZN16SocketPermission11checkForIDNE6String",
            "__ZN18EnumChatFormatting13func_175745_cE6String",
            "__ZN13ZonedDateTime8plusDaysEl",
            "__ZN14PlatformLogger5finerE6String9Throwable",
            "__ZN15ItemModelMesher9f_shapersEv",
            "__ZN19DefaultResourcePack12getPackImageEv",
            "__ZN11ShortBuffer3getEv",
            "__ZN12GameSettings11saveOptionsEv",
            "__ZN6Region15getIntersectionE11Rectangle2D",
            "__ZN17GraphicsPrimitive19setupGeneralUnaryOpE32GraphicsPrimitive_GeneralUnaryOp",
            "__ZN12RenderGlobal20f_renderChunkFactoryEv",
            "__ZN5World20getLastLightningBoltEv",
            "__ZN3URI6equalsE6Object",
            "__ZN10Executable13getAnnotationE5Class",
            "__ZN10OffsetTime5minusE14TemporalAmount",
            "__ZN20DecimalFormatSymbols8getDigitEv",
            "__ZN9Component20transferFocusUpCycleEv",
            "__ZN12AbstractList6equalsE6Object",
            "__ZN12EntityAnimal11canMateWithES_",
            "__ZN11ThreadGroup9enumerateE16Thread_interfaceb",
            "__ZN15MinecraftServer10logWarningE6String",
            "__ZN7TreeSet7ceilingE6Object",
            "__ZN7Toolkit15f_eventListenerEv",
            "__ZN5World13f_worldBorderEv",
            "__ZN6Locale18getDisplayLanguageES_",
            "__ZN23C15PacketClientSettings13processPacketE21INetHandlerPlayServer",
            "__ZN11EntityHorse7canMateEv",
            "__ZN6Path2D12f_EXPAND_MAXEv",
            "__ZN11ChronoField29f_ALIGNED_DAY_OF_WEEK_IN_YEAREv",
            "__ZN20MethodHandles_Lookup34getFieldVarHandleNoSecurityManagerEhh5Class10MemberNameS1_",
            "__ZN18TextureAtlasSprite7getMaxUEv",
            "__ZN27ReentrantReadWriteLock_Sync11f_readHoldsEv",
            "__ZN11SurfaceData11f_paintPipeEv",
            "__ZN14EntityRenderer14getFOVModifierEfb",
            "__ZN10OffsetTime11isSupportedE13TemporalField",
            "__ZN6Entity11f_dimensionEv",
            "__ZN10FontStrike10f_disposerEv",
            "__ZN3URL14getHostAddressEv",
            "__ZN14PropertyHelper8hashCodeEv",
            "__ZN13NumericShaper10f_THAI_KEYEv",
            "__ZN9Minecraft17f_debugUpdateTimeEv",
            "__ZN21ConcurrentLinkedQueue6f_NEXTEv",
            "__ZN13WorldRenderer13func_181667_kEv",
            "__ZN10ColorModel14f_transferTypeEv",
            "__ZN11FloatBuffer4markEv",
            "__ZN10DataBuffer9getOffsetEv",
            "__ZN12ModuleWriter14f_exportsCountEv",
            "__ZN17ObjectStreamClass18requireInitializedEv",
            "__ZN32ChunkCompileTaskGenerator_Status6f_DONEEv",
            "__ZN16DataOutputStream10writeFloatEf",
            "__ZN8Duration7betweenE8TemporalS0_",
            "__ZN4Item9setFull3DEv",
            "__ZN10BigDecimal9remainderES_11MathContext",
            "__ZN4Font6f_nameEv",
            "__ZN17ConcurrentHashMap11f_CELLVALUEEv",
            "__ZN10LinkedList10readObjectE17ObjectInputStream",
            "__ZN16SocketPermission18includesEphemeralsEv",
            "__ZN12DamageSource12setExplosionEv",
            "__ZN14EntityRenderer21renderStreamIndicatorEf",
            "__ZN5oatpp4data7mapping4type10BaseObject14setBasePointerEPv",
            "__ZN17BaseCalendar_Date3hitEi",
            "__ZN4File6toPathEv",
            "__ZN21LoadingScreenRenderer23resetProgressAndMessageE6String",
            "__ZN10JsonReader17nextUnquotedValueEv",
            "__ZN10BigInteger8toStringEi",
            "__ZN36ServerStatusResponse_PlayerCountData20getOnlinePlayerCountEv",
            "__ZN8KeyEvent10f_VK_AGAINEv",
            "__ZN15VillageDoorInfo23f_lastActivityTimestampEv",
            "__ZN10RenderItem8f_zLevelEv",
            "__ZN13URLConnection17getConnectTimeoutEv",
            "__ZN8Duration5minusES_",
            "__ZN18ScopedMemoryAccess15getAndAddDoubleE24ScopedMemoryAccess_Scope6Objectld",
            "__ZN28S3BPacketScoreboardObjective13processPacketE21INetHandlerPlayClient",
            "__Z4initv",
            "__ZN8Sequence13getTickLengthEv",
            "__ZN10MemberName7getNameE6Object",
            "__ZN13StreamEncoder5closeEv",
            "__ZN20PermissionCollection16elementsAsStreamEv",
            "__ZN14MethodTypeForm8f_LF_GWTEv",
            "__ZN10DropTarget4dropE19DropTargetDropEvent",
            "__ZN25PageAttributes_OriginType10f_PHYSICALEv",
            "__ZN4Date7getYearEv",
            "__ZN6Entity13f_chunkCoordYEv",
            "__ZN7Toolkit24getMenuShortcutKeyMaskExEv",
            "__ZN18TextureAtlasSprite12setIconWidthEi",
            "__ZN26ThreadLocal_ThreadLocalMap3setE11ThreadLocal6Object",
            "__ZN13ModuleVisitor9visitOpenE6Stringi16String_interface",
            "__ZN13MethodVisitor23visitMultiANewArrayInsnE6Stringi",
            "__ZN6Source8f_pausedEv",
            "__ZN18LinkedTreeMap_Node6getKeyEv",
            "__ZN17HttpURLConnection23f_HTTP_PAYMENT_REQUIREDEv",
            "__ZN10JsonObject8hashCodeEv",
            "__ZN13TextureOffset16f_textureOffsetYEv",
            "__ZN5Float12f_MIN_NORMALEv",
            "__ZN27InetAddress_CachedLocalHost6f_addrEv",
            "__ZN14RenderingHints26f_VALUE_COLOR_RENDER_SPEEDEv",
            "__ZN5Score9setLockedEb",
            "__ZN33DropTarget_DropTargetAutoScroller12updateRegionEv",
            "__ZN12MethodWriter26collectAttributePrototypesE13Attribute_Set",
            "__ZN6Period12multipliedByEi",
            "__ZN18EnumChatFormatting14getValueByNameE6String",
            "__ZN4Vec325getIntermediateWithZValueES_d",
            "__ZN8Duration9toMinutesEv",
            "__ZN6Unsafe18getReferenceOpaqueE6Objectl",
            "__ZN24WrongMethodTypeException18f_serialVersionUIDEv",
            "__ZN12EntityPlayer12getEyeHeightEv",
            "__ZN11PrintWriter6appendE12CharSequenceii",
            "__ZN24PageAttributes_MediaType8f_ISO_C6Ev",
            "__ZN5oatpp4data6stream25OutputStreamBufferedProxy22getOutputStreamContextEv",
            "__ZN13ImmutableList2ofE6ObjectS0_S0_S0_S0_S0_S0_S0_S0_S0_S0_S0_16Object_interface",
            "__ZN7ByteBuf11bytesBeforeEiih",
            "__ZN16ClassValue_Entry16classValueOrNullEv",
            "__ZN8TimeZone6f_LONGEv",
            "__ZN13SocketChannel11isConnectedEv",
            "__ZN5Block30getPlayerRelativeBlockHardnessE12EntityPlayer5World8BlockPos",
            "__ZN11EntityHorse14getSoundVolumeEv",
            "__ZN6Render18renderEntityOnFireE6Entitydddf",
            "__ZN6Font2D14getItalicAngleE4Font15AffineTransform6ObjectS2_",
            "__ZN16TreeMap_EntrySet11spliteratorEv",
            "__ZN11InetAddress18isSiteLocalAddressEv",
            "__ZN13SunGraphics2D4fillE5Shape",
            "__ZN16NetworkInterface13f_displayNameEv",
            "__ZN5Proxy10f_NO_PROXYEv",
            "__ZN9WorldInfo13f_terrainTypeEv",
            "__ZN10KeyBinding27resetKeyBindingArrayAndHashEv",
            "__ZN14PageAttributes17setMediaToDefaultEv",
            "__ZN3URI15appendAuthorityE13StringBuilder6StringS1_S1_i",
            "__ZN8Ordering7leastOfE8Iteratori",
            "__ZN6Window13setClientSizeEii",
            "__ZN17LocaleObjectCache3getE6Object",
            "__ZN15C03PacketPlayer10f_rotatingEv",
            "__ZN7Village13f_tickCounterEv",
            "__ZN10LongBuffer8f_offsetEv",
            "__ZN22ReentrantReadWriteLock16getReadHoldCountEv",
            "__ZN3URL15fabricateNewURLEv",
            "__ZN5oatpp3web6server3api8Endpoint4Info5ParamC2Ev",
            "__ZN24PageAttributes_MediaType17f_ISO_C3_ENVELOPEEv",
            "__ZN16DataOutputStream8writeUTFE6String",
            "__ZN26Chunk_EnumCreateEntityType7f_CHECKEv",
            "__ZN10EnumFacing15getFrontOffsetZEv",
            "__ZN9WorldInfo20getBorderWarningTimeEv",
            "__ZN12Path2D_Float13rectCrossingsEdddd",
            "__ZN11MathContext11f_DECIMAL32Ev",
            "__ZN12MethodHandle6f_formEv",
            "__ZN14EnumDifficulty6f_EASYEv",
            "__ZN19S2DPacketOpenWindow15f_inventoryTypeEv",
            "__ZN16SocketPermission8hashCodeEv",
            "__ZN13ShaderManager16f_field_148016_pEv",
            "__ZN20VarHandle_AccessMode13f_GET_AND_ADDEv",
            "__ZN10EventQueue4pushES_",
            "__ZN11SoundSystem5f_GETEv",
            "__ZN17AccessibleContext24getAccessibleDescriptionEv",
            "__ZN6Entity21getDistanceSqToCenterE8BlockPos",
            "__ZN25BiomeGenBase_TempCategory6f_COLDEv",
            "__ZN5oatpp4data7mapping4typeplERKNS2_6StringES5_",
            "__ZN5oatpp3web6server3api13ApiController15setErrorHandlerERKNSt3__110shared_ptrINS1_7handler12ErrorHandlerEEE",
            "__ZN14OffsetDateTime8isBeforeES_",
            "__ZN11SampleModel14getSampleFloatEiii10DataBuffer",
            "__ZN14OffsetDateTime8withYearEi",
            "__ZN22ModuleLayer_Controller7f_layerEv",
            "__ZN12GameSettings17f_chatLinksPromptEv",
            "__ZN14TreeMap_KeySet11spliteratorEv",
            "__ZN27ImmutableCollection_Builder6addAllE8Iterable",
            "__ZN6Unsafe14getAndAddShortE6Objectls",
            "__ZN11SymbolTable11addConstantE6Object",
            "__ZN11SurfaceType14f_Ushort555RgbEv",
            "__ZN20GameSettings_Options5f_FOVEv",
            "__ZN25S41PacketServerDifficulty14readPacketDataE12PacketBuffer",
            "__ZN18CertificateFactory12f_certFacSpiEv",
            "__ZN28ClassSpecializer_SpeciesData3keyEv",
            "__ZN14ResourceBundle17setExpirationTimeE23ResourceBundle_CacheKey22ResourceBundle_Control",
            "__ZN12RenderGlobal22f_renderDistanceChunksEv",
            "__ZN10Properties7replaceE6ObjectS0_",
            "__ZN17SpanShapeRenderer9renderBoxE6Objectiiii",
            "__ZN9JsonArray9getAsByteEv",
            "__ZN19System_Logger_Level7getNameEv",
            "__ZN19NumericShaper_Range10f_KAYAH_LIEv",
            "__ZN13StrikeMetrics10f_descentXEv",
            "__ZN10MemberName22makeMethodHandleInvokeE6String10MethodTypei",
            "__ZN23BlockRendererDispatcher21renderBlockBrightnessE11IBlockStatef",
            "__ZN5Color15getTransparencyEv",
            "__ZN8Provider9implMergeE6ObjectS0_10BiFunction",
            "__ZN10ByteBuffer3getE5arr_B",
            "__ZN8GenLayer11f_chunkSeedEv",
            "__ZN26ServerConfigurationManager29sendMessageToTeamOrEvryPlayerE12EntityPlayer14IChatComponent",
            "__ZN3URI18f_H_SERVER_PERCENTEv",
            "__ZN12ModuleWriter11f_usesCountEv",
            "__ZN21ConcurrentLinkedQueue6f_tailEv",
            "__ZN9Character19f_MIN_LOW_SURROGATEEv",
            "__ZN17DropTargetContext24getDropTargetContextPeerEv",
            "__ZN10Graphics2D8setPaintE5Paint",
            "__ZN10BigDecimal14divideAndRoundE10BigIntegerS0_i",
            "__ZN8Invokers12callSiteFormE10MethodTypeb",
            "__ZN15AttributeValues12f_foregroundEv",
            "__ZN21AbstractStringBuilder18offsetByCodePointsEii",
            "__ZN15LocaleResources14f_LOCALE_NAMESEv",
            "__ZN9Component15f_compoundShapeEv",
            "__ZN10ColorSpace11getInstanceEi",
            "__ZN14BiomeDecorator9f_coalGenEv",
            "__ZN13PriorityQueue4growEi",
            "__ZN5oatpp6parser5Caret6isAtRNEv",
            "__ZN10ColorSpace16getNumComponentsEv",
            "__ZN17FillParallelogram6locateE11SurfaceType13CompositeTypeS0_",
            "__ZN12StringBuffer6insertEii",
            "__ZN11ThreadGroup7suspendEv",
            "__ZN5World16getStrongholdPosE6String8BlockPos",
            "__ZN14EntityRenderer11f_cameraYawEv",
            "__ZN6Unsafe19getAndBitwiseXorIntE6Objectli",
            "__ZN9GuiScreen15isKeyComboCtrlAEi",
            "__ZN11WorldServer11tickUpdatesEb",
            "__ZN9Component24removeMouseWheelListenerE18MouseWheelListener",
            "__ZN11Framebuffer18f_framebufferWidthEv",
            "__ZN9Component10f_peerFontEv",
            "__ZN12RenderGlobal17f_lastViewEntityZEv",
            "__ZN13MethodVisitor10visitLabelE5Label",
            "__ZN5Debug8toStringE5arr_B",
            "__ZN10BigDecimal9compareToES_",
            "__ZN5oatpp6parser5CaretC2EPKc",
            "__ZN12ServerSocket9f_factoryEv",
            "__ZN12AbstractList8hashCodeEv",
            "__ZN17DateTimeFormatter8toFormatE13TemporalQuery",
            "__ZN24ClassValue_ClassValueMap18removeStaleEntriesEv",
            "__ZN8KeyEvent8f_VK_TABEv",
            "__ZN8Collator20f_FULL_DECOMPOSITIONEv",
            "__ZN8EntityFX15f_particleScaleEv",
            "__ZN8KeyEvent8f_VK_F12Ev",
            "__ZN12DecimalStyle19getAvailableLocalesEv",
            "__ZN8Vector2f3f_yEv",
            "__ZN33ObjectInputStream_PeekInputStream4readEv",
            "__ZN4Item9f_bFull3DEv",
            "__ZN16EntityLivingBase15setLastAttackerE6Entity",
            "__ZN8Sequence14f_divisionTypeEv",
            "__ZN13DecimalFormat18f_posPrefixPatternEv",
            "__ZN24S13PacketDestroyEntities14readPacketDataE12PacketBuffer",
            "__ZN15S0APacketUseBed14getBedPositionEv",
            "__ZN20NetHandlerPlayClient17handleSpawnObjectE20S0EPacketSpawnObject",
            "__ZN9ItemStack10setTagInfoE6String7NBTBase",
            "__ZN12EntityLiving18setLeashedToEntityE6Entityb",
            "__ZN5Event12f_LIST_EVENTEv",
            "__ZN3URI19compareIgnoringCaseE6StringS0_",
            "__ZN8CallSite11f_THROW_UCSEv",
            "__ZN13NodeProcessor13f_entitySizeXEv",
            "__ZN11CharMatcher16f_DISTINCT_CHARSEv",
            "__ZN13CompositeType13deriveSubTypeE6String",
            "__ZN5Event12f_MISC_EVENTEv",
            "__ZN6Entity17canBeCollidedWithEv",
            "__ZN6Window12processEventE8AWTEvent",
            "__ZN16ServerScoreboard15addPlayerToTeamE6StringS0_",
            "__ZN21RecordComponentWriter17f_descriptorIndexEv",
            "__ZN6Method7getRootEv",
            "__ZN7Toolkit27areExtraMouseButtonsEnabledEv",
            "__ZN4Font14f_DIALOG_INPUTEv",
            "__ZN9Reference24processPendingReferencesEv",
            "__ZN9Crossings6getYHiEv",
            "__ZN12BaseCalendar12getFixedDateE12CalendarDate",
            "__ZN18ScopedMemoryAccess27getAndAddIntReleaseInternalE24ScopedMemoryAccess_Scope6Objectli",
            "__ZN6Locale20f_SIMPLIFIED_CHINESEEv",
            "__ZN18ScopedMemoryAccess28compareAndExchangeIntAcquireE24ScopedMemoryAccess_Scope6Objectlii",
            "__ZN4Menu14countItemsImplEv",
            "__ZN15ScorePlayerTeam14getColorSuffixEv",
            "__ZN11SoundSystem18CommandSetVelocityE6Stringfff",
            "__ZN14S3EPacketTeams13func_149308_iEv",
            "__ZN15AttributeValues16getBidiEmbeddingEv",
            "__ZN13LocalDateTime8getMonthEv",
            "__ZN19NumericShaper_Range7f_startEv",
            "__ZN5oatpp6parser5CaretC1EPKc",
            "__ZN6Unsafe17putBooleanReleaseE6Objectlb",
            "__ZN5oatpp7network3tcp10ConnectionD2Ev",
            "__ZN13EntityAgeable8setScaleEf",
            "__ZN14OffsetDateTime12getDayOfYearEv",
            "__ZN10BigDecimal17f_INFLATED_BIGINTEv",
            "__ZN20S0EPacketSpawnObject9setSpeedXEi",
            "__ZN18S2APacketParticles8f_zCoordEv",
            "__ZN11EntityHorse15getHorseVariantEv",
            "__ZN18Rectangle2D_Double7f_widthEv",
            "__ZN4Menu23getAccessibleChildIndexE13MenuComponent",
            "__ZN6Method19getGenericSignatureEv",
            "__ZN12GuiSpectator13func_175265_cEv",
            "__ZN24PageAttributes_MediaType17f_ISO_C1_ENVELOPEEv",
            "__ZN18ScopedMemoryAccess10copyMemoryE24ScopedMemoryAccess_ScopeS0_6ObjectlS1_ll",
            "__ZN24PageAttributes_MediaType11f_EXECUTIVEEv",
            "__ZN12EntityPlayer12f_fishEntityEv",
            "__ZN8Optional7isEmptyEv",
            "__ZN21LocaleProviderAdapter24getLocaleServiceProviderE5Class",
            "__ZN10AppContext14getAppContextsEv",
            "__ZN17NetworkPlayerInfo13func_178855_pEv",
            "__ZN18ScopedMemoryAccess18compareAndSetFloatE24ScopedMemoryAccess_Scope6Objectlff",
            "__ZN29InetAddress_InetAddressHolder11getHostNameEv",
            "__ZN12DamageSource8f_starveEv",
            "__ZN14ResourceBundle16f_UNKNOWN_FORMATEv",
            "__ZN25ChunkCompileTaskGenerator15f_compiledChunkEv",
            "__ZN6Source11f_nextCodecEv",
            "__ZN9Reference27clearInactiveFinalReferenceEv",
            "__ZN15ScorePlayerTeam19f_nameTagVisibilityEv",
            "__ZN31PlayerProfileCache_ProfileEntry14getGameProfileEv",
            "__ZN24EnumFacing_AxisDirection10f_POSITIVEEv",
            "__ZN54ObjectStreamClass_DeserializationConstructorsCache_Key8hashCodeEv",
            "__ZN12MethodWriter35endCurrentBasicBlockWithNoSuccessorEv",
            "__ZN11WorldServer20f_disableLevelSavingEv",
            "__ZN19EventDispatchThread19pumpEventsForFilterEi11Conditional11EventFilter",
            "__ZN10TimerQueue13startIfNeededEv",
            "__ZN13SunGraphics2D27drawTranslatedRenderedImageE13RenderedImage9Rectangleii",
            "__ZN21AbstractStringBuilder14codePointCountEii",
            "__ZN12EntityPlayer15hasReducedDebugEv",
            "__ZN15InventoryPlayer12setItemStackE9ItemStack",
            "__ZN14CharsetEncoder7f_stateEv",
            "__ZN34JobAttributes_DefaultSelectionType7f_RANGEEv",
            "__ZN6Source13f_filenameURLEv",
            "__ZN17S01PacketJoinGame13processPacketE21INetHandlerPlayClient",
            "__ZN12StringBuffer18offsetByCodePointsEii",
            "__ZN13CommandObject11f_LOAD_DATAEv",
            "__ZN13LocalDateTime2ofEiiiiii",
            "__ZN9WorldInfo11f_dimensionEv",
            "__ZN13JobAttributes17setSidesToDefaultEv",
            "__ZN10OffsetTime5parseE12CharSequence",
            "__ZN12DamageSource12isProjectileEv",
            "__ZN10MemberName17checkForTypeAliasE5Class",
            "__ZN10EventQueue11cacheEQItemE14EventQueueItem",
            "__ZN13Configuration8toStringEv",
            "__ZN7Integer20numberOfLeadingZerosEi",
            "__ZN27ObjectOutputStream_PutField3putE6Stringl",
            "__ZN24ClassValue_ClassValueMap12placeInCacheE26ClassValue_Entry_interfacei16ClassValue_Entryb",
            "__ZN13NumericShaper6f_maskEv",
            "__ZN7Wrapper13basicTypeCharE5Class",
            "__ZN26ConcurrentLinkedQueue_Node7casItemE6ObjectS0_",
            "__ZN15AffineTransform17getRotateInstanceEdddd",
            "__ZN11Enchantment6f_lureEv",
            "__ZN10GuiNewChat11refreshChatEv",
            "__ZN11DataWatcher31readWatchedListFromPacketBufferE12PacketBuffer",
            "__ZNK5oatpp4data6buffer10FIFOBuffer13getBufferSizeEv",
            "__ZN17MutableBigInteger9bitLengthEv",
            "__ZN14BiomeDecorator12generateOresEv",
            "__ZN8MapColor11f_dirtColorEv",
            "__ZN12MenuShortcut17usesShiftModifierEv",
            "__ZN28VertexFormatElement_EnumType6f_UINTEv",
            "__ZN12CreativeTabs9f_tabMiscEv",
            "__ZN5oatpp5utils10conversion12float64ToStrEdPKc",
            "__ZN8MapColor10f_redColorEv",
            "__ZN9TypeToken6f_typeEv",
            "__ZN10DateFormat11getTimeZoneEv",
            "__ZN15AttributeValues13getForegroundEv",
            "__ZN10CharBuffer12getUncheckedEi",
            "__ZN9Hashtable16computeIfPresentE6Object10BiFunction",
            "__ZN5oatpp7network3tcp6server18ConnectionProvider23prepareConnectionHandleEi",
            "__ZN12SimpleThread6snoozeEl",
            "__ZN29BoundMethodHandle_SpeciesData13verifyTHAargsE10MemberNamei4ListS1_",
            "__ZN18EnumChatFormatting15f_STRIKETHROUGHEv",
            "__ZN22WorldSettings_GameType7valueOfE6String",
            "__ZN6Method17setMethodAccessorE14MethodAccessor",
            "__ZN12DecimalStyle15ofDefaultLocaleEv",
            "__ZN6Unsafe20compareAndSetBooleanE6Objectlbb",
            "__ZN13AtomicInteger11doubleValueEv",
            "__ZN7Boolean9logicalOrEbb",
            "__ZN12GameSettings21getOptionOrdinalValueE20GameSettings_Options",
            "__ZN11SurfaceData10invalidateEv",
            "__ZN15IndexColorModel18isCompatibleRasterE6Raster",
            "__ZN11AudioFormat18f_sampleSizeInBitsEv",
            "__ZN20LambdaForm_BasicType9basicTypeE5Class",
            "__ZN3URI24getRawSchemeSpecificPartEv",
            "__ZN21ChannelHandlerAdapter14handlerRemovedE21ChannelHandlerContext",
            "__ZN12RenderGlobal23updateDestroyBlockIconsEv",
            "__ZN13CombatTracker16f_field_152775_dEv",
            "__ZN20S24PacketBlockAction15f_blockPositionEv",
            "__ZN13SunGraphics2D7drawArcEiiiiii",
            "__ZN10LinkedList15isPositionIndexEi",
            "__ZN18ObjectOutputStream14writeClassDescE17ObjectStreamClassb",
            "__ZN6Locale10filterTagsE4List10Collection20Locale_FilteringMode",
            "__ZN7Package22getImplementationTitleEv",
            "__ZN13JobAttributes13setPageRangesE9arr_arr_I",
            "__ZN16SurfaceDataProxy10f_UNCACHEDEv",
            "__ZN20ZoneOffsetTransition10getInstantEv",
            "__ZN5Color6f_GRAYEv",
            "__ZN6Potion13f_damageBoostEv",
            "__ZN11AudioFormat12getFrameSizeEv",
            "__ZN16SimpleDateFormat25getDisplayContextNamesMapEi6Locale",
            "__ZN7MenuBar11writeObjectE18ObjectOutputStream",
            "__ZN9Component13isLightweightEv",
            "__ZN14EntityFireball16f_shootingEntityEv",
            "__ZN10MethodType10methodTypeE5ClassS0_",
            "__ZN13SunGraphics2D9drawImageE5Imageii13ImageObserver",
            "__ZN5oatpp4base11Environment19unregisterComponentERKNSt3__112basic_stringIcNS2_11char_traitsIcEENS2_9allocatorIcEEEESA_",
            "__ZN7Instant12f_MAX_SECONDEv",
            "__ZN15MinecraftServer13f_serverOwnerEv",
            "__ZN16LocaleExtensions17getExtensionValueE9Character",
            "__ZN22StateTrackableDelegate14createInstanceE20StateTrackable_State",
            "__ZN5Score17f_scoreComparatorEv",
            "__ZN8AWTEvent4f_idEv",
            "__ZN10MouseEvent14f_MOUSE_EXITEDEv",
            "__ZN11ViewFrustum19markBlocksForUpdateEiiiiii",
            "__ZN13ZonedDateTime9getSecondEv",
            "__ZN5oatpp6parser4json10BeautifierC2EPNS_4data6stream22ConsistentOutputStreamERKNS3_7mapping4type6StringESB_",
            "__ZN11InetAddress18f_serialVersionUIDEv",
            "__ZN10MethodType11invokerTypeEv",
            "__ZN17ObjectStreamClass24f_readObjectNoDataMethodEv",
            "__ZN13ZonedDateTime8withNanoEi",
            "__ZN15S43PacketCamera9getEntityE5World",
            "__ZNK5oatpp3web8protocol4http8encoding18ProviderCollection3getERKNS_4data5share16StringKeyLabelCIE",
            "__ZN9Component20f_componentListenerKEv",
            "__ZN18CommandResultStats13func_179667_aES_23CommandResultStats_Type6StringS1_",
            "__ZN7MenuBar7f_menusEv",
            "__ZN12NumberFormat11writeObjectE18ObjectOutputStream",
            "__ZN8Calendar7f_APRILEv",
            "__ZN9Reference18enqueueFromPendingEv",
            "__ZN10Graphics2D10draw3DRectEiiiib",
            "__ZN12ModelManager23onResourceManagerReloadE16IResourceManager",
            "__ZN14FontStrikeDesc15getFMHintIntValE6Object",
            "__ZN10EAttribute6f_maskEv",
            "__ZN11ClassWriter10newPackageE6String",
            "__ZN24S49PacketUpdateEntityNBT9getEntityE5World",
            "__ZN11ClassReader8readCodeE13MethodVisitor7Contexti",
            "__ZN11SurfaceData17f_AAColorViaShapeEv",
            "__ZN18AbstractRepository10getFactoryEv",
            "__ZN11EntityHorse9setEatingEb",
            "__ZN11SurfaceData14f_clipCompPipeEv",
            "__ZN14BiomeDecorator17f_gravelAsSandGenEv",
            "__ZN32C10PacketCreativeInventoryAction8f_slotIdEv",
            "__ZN10BiomeCache17f_lastCleanupTimeEv",
            "__ZN14CalendarSystem9normalizeE12CalendarDate",
            "__ZN20PlatformLogger_Level17f_SEVERITY_SEVEREEv",
            "__ZN13WorldProvider28generateLightBrightnessTableEv",
            "__ZN15FontLineMetrics25getStrikethroughThicknessEv",
            "__ZN7VarForm11f_implClassEv",
            "__ZN30ObjectOutputStream_HandleTable6f_sizeEv",
            "__ZN13PriorityQueue6f_sizeEv",
            "__ZN13ShaderManager13setupUniformsEv",
            "__ZN18ScopedMemoryAccess28getAndAddByteReleaseInternalE24ScopedMemoryAccess_Scope6Objectlh",
            "__ZN6String10checkIndexEii",
            "__ZN11TextHitInfo8trailingEi",
            "__ZN6Parsed10crossCheckEv",
            "__ZN9Extension5f_keyEv",
            "__ZN12DoubleBuffer5resetEv",
            "__ZN24PageAttributes_MediaType20f_I_NA_9X11_ENVELOPEEv",
            "__ZN15IndexColorModel6getRGBEi",
            "__ZN14AlphaComposite8f_DST_INEv",
            "__ZN20S30PacketWindowItems15writePacketDataE12PacketBuffer",
            "__ZN3URI20parseServerAuthorityEv",
            "__ZN11Achievement14f_theItemStackEv",
            "__ZN13WorldProvider20createChunkGeneratorEv",
            "__ZN12PacketBuffer8readCharEv",
            "__ZN10EventQueue13f_pushPopCondEv",
            "__ZN11Rectangle2D15getPathIteratorE15AffineTransform",
            "__ZN17S0FPacketSpawnMob3f_xEv",
            "__ZN10MapStorage8saveDataE14WorldSavedData",
            "__ZN16Provider_Service10f_providerEv",
            "__ZN9Component8f_cursorEv",
            "__ZN14ContainerEvent8getChildEv",
            "__ZN17BlockLog_EnumAxis3f_YEv",
            "__ZN4Gson10toJsonTreeE6Object",
            "__ZN7Wrapper17f_basicTypeStringEv",
            "__ZN29BoundMethodHandle_Specializer11makeFactoryEv",
            "__ZN10JsonReader22f_PEEKED_UNQUOTED_NAMEEv",
            "__ZN18S27PacketExplosion11getStrengthEv",
            "__ZN12PacketBuffer17getUnsignedMediumEi",
            "__ZN12GlyphMetrics11isCombiningEv",
            "__ZN14EntityPlayerSP14getClientBrandEv",
            "__ZN17MutableBigInteger12toBigIntegerEv",
            "__ZN6Thread14f_threadLocalsEv",
            "__ZN6Buffer29f_SPLITERATOR_CHARACTERISTICSEv",
            "__ZN12SoundManager17unloadSoundSystemEv",
            "__ZN3URI17equalIgnoringCaseE6StringS0_",
            "__ZN27ObjectOutputStream_PutField5writeE12ObjectOutput",
            "__ZN11Rectangle2D8containsEdd",
            "__ZN21ChunkProviderSettings12f_useRavinesEv",
            "__ZN4File14createTempFileE6StringS0_S_",
            "__ZN12EntityLiving12clearLeashedEbb",
            "__ZN11WorldServer13saveChunkDataEv",
            "__ZN8KeyEvent8f_VK_F13Ev",
            "__ZN13CombatTracker11trackDamageE12DamageSourceff",
            "__ZN11ModuleLayer13defineModulesE13Configuration8Function",
            "__ZN13LinkedTreeMap8f_keySetEv",
            "__ZN5Color8f_YELLOWEv",
            "__ZN14StatisticsFile16f_field_150886_gEv",
            "__ZN6Method11isSyntheticEv",
            "__ZN12EntityAIBase14startExecutingEv",
            "__ZN3URI12f_L_RESERVEDEv",
            "__ZN6String8endsWithES_",
            "__ZN9GameRules10getBooleanE6String",
            "__ZN7ByteBuf7setByteEii",
            "__ZN11WorldServer13onEntityAddedE6Entity",
            "__ZN6Potion15f_effectivenessEv",
            "__ZN18AbstractRepository5parseE6String",
            "__ZN14HierarchyEvent24f_DISPLAYABILITY_CHANGEDEv",
            "__ZN12PacketBuffer9readBytesE7ByteBuf",
            "__ZN21ChunkRenderDispatcher15runChunkUploadsEl",
            "__ZN9Component21subtractAndApplyShapeE6Region",
            "__ZN12CreativeTabs14f_tabInventoryEv",
            "__ZN10Permission7getNameEv",
            "__ZN13BufferedImage18f_DCM_BGR_RED_MASKEv",
            "__ZN21S1DPacketEntityEffect13func_149429_cEv",
            "__ZN7EnumMap10readObjectE17ObjectInputStream",
            "__ZN14CommandHandler12f_commandSetEv",
            "__ZN14AssertionError18f_serialVersionUIDEv",
            "__ZN16EnumBorderStatus5getIDEv",
            "__ZN8Matrix4f7setZeroEv",
            "__ZN17HttpURLConnection19f_HTTP_UNAUTHORIZEDEv",
            "__ZN20S3CPacketUpdateScore6f_nameEv",
            "__ZN8Vector2f4getYEv",
            "__ZN8KeyEvent9f_VK_STOPEv",
            "__ZN6Unsafe4pickEss",
            "__ZN6Unsafe30getAndBitwiseXorBooleanReleaseE6Objectlb",
            "__ZN8MimeType5matchE6String",
            "__ZN9Component12numListeningEl",
            "__ZN11ModuleLayer18getServicesCatalogEv",
            "__ZN10LinkedList11spliteratorEv",
            "__ZN6Symbol5f_tagEv",
            "__ZN10LongBuffer8allocateEi",
            "__ZN12BiomeGenBase14f_iceMountainsEv",
            "__ZN9Character12isAlphabeticEi",
            "__ZN12Path2D_Float7curveToEdddddd",
            "__ZN23S36PacketSignEditorOpen14f_signPositionEv",
            "__ZN3URI6decodeE6String",
            "__ZN8Material13f_craftedSnowEv",
            "__ZN16LambdaFormBuffer6f_dupsEv",
            "__ZN16LocaleExtensions23isValidUnicodeLocaleKeyE6String",
            "__ZN17ObjectStreamClass17setObjFieldValuesE6Object16Object_interface",
            "__ZN13MessageHeader3setE6StringS0_",
            "__ZN15AttributeValues12f_nondefaultEv",
            "__ZN10ColorSpace10rangeCheckEi",
            "__ZN7ByteBuf9skipBytesEi",
            "__ZN20MethodHandles_Lookup16findVirtualForMHE6String10MethodType",
            "__ZN12ServerSocket5closeEv",
            "__ZN6Parsed7getLongE13TemporalField",
            "__ZN17ObjectStreamClass21f_deserializationCtrsEv",
            "__ZN13ModelRenderer18compileDisplayListEf",
            "__ZN7ByteBuf16maxWritableBytesEv",
            "__ZN11TextHitInfo17getInsertionIndexEv",
            "__ZN7TreeMap9keyOrNullE13TreeMap_Entry",
            "__ZN19PropertyChangeEvent18f_serialVersionUIDEv",
            "__ZN29LambdaFormEditor_TransformKey12ofBothArraysEh5arr_I5arr_B",
            "__ZN9LocalDate5f_MAXEv",
            "__ZN20VarHandle_AccessMode19valueFromMethodNameE6String",
            "__ZN13SunGraphics2D17f_foregroundColorEv",
            "__ZN20GameSettings_Options7f_GAMMAEv",
            "__ZN8CertPath6equalsE6Object",
            "__ZN14EffectRenderer22addBlockDestroyEffectsE8BlockPos11IBlockState",
            "__ZN6Unsafe18checkNativeAddressEl",
            "__ZN14OffsetDateTime9getOffsetEv",
            "__ZN12BaseCalendar9f_JANUARYEv",
            "__ZN6Entity19isInRangeToRender3dEddd",
            "__ZN9BlockBush15canPlaceBlockOnE5Block",
            "__ZN6Unsafe17getObjectVolatileE6Objectl",
            "__ZN5Color6f_BLUEEv",
            "__ZN11FloatBuffer7compactEv",
            "__ZN13ShaderUniform3setEf",
            "__ZN10CharBuffer5sliceEv",
            "__ZN6String10replaceAllES_S_",
            "__ZN13MenuComponent7initIDsEv",
            "__ZN3URL6f_portEv",
            "__ZN26ServerConfigurationManager24setCommandsAllowedForAllEb",
            "__ZN10SocketImpl25setPerformancePreferencesEiii",
            "__ZN12BiomeGenBase17getSpawningChanceEv",
            "__ZN6Parsed17resolveFractionalEv",
            "__ZN18EnumChatFormatting13f_nameMappingEv",
            "__ZN7ByteBuf6setIntEii",
            "__ZN20AccessControlContext19getAssignedCombinerEv",
            "__ZN17ConcurrentHashMap6spreadEi",
            "__ZN20ZoneOffsetTransition18f_serialVersionUIDEv",
            "__ZN17ObjectStreamClass11newInstanceEv",
            "__ZN23S38PacketPlayerListItem8toStringEv",
            "__ZN15MinecraftServer17f_resourcePackUrlEv",
            "__ZN15ServicesCatalog11addProviderE6Module5ClassS1_",
            "__ZN5oatpp4data6buffer10FIFOBufferC1EPvlllb",
            "__ZN7Pattern10f_CANON_EQEv",
            "__ZN11PerfCounter23getParentDelegationTimeEv",
            "__ZN21RecordComponentWriter16f_signatureIndexEv",
            "__ZN10Teleporter21f_worldServerInstanceEv",
            "__ZN7HashSet9f_PRESENTEv",
            "__ZN6Window19getLocationOnWindowEv",
            "__ZN14InventoryBasic17isUseableByPlayerE12EntityPlayer",
            "__ZN16LocaleExtensions7isEmptyEv",
            "__ZN11SurfaceData14f_LOOP_UNKNOWNEv",
            "__ZN32C10PacketCreativeInventoryAction9getSlotIdEv",
            "__ZN16JsonBlendingMode13func_148107_bE6String",
            "__ZN6Locale23f_PRIVATE_USE_EXTENSIONEv",
            "__ZN20PlatformLogger_Level8f_CONFIGEv",
            "__ZN13SunGraphics2D14getImageRegionE13RenderedImage6Region15AffineTransformS2_ii",
            "__ZN13WorldProvider11getHasNoSkyEv",
            "__ZN14EntityRenderer18activateNextShaderEv",
            "__ZN8Calendar17setFirstDayOfWeekEi",
            "__ZN6Symbol7f_ownerEv",
            "__ZN16SimpleDateFormat12f_formatDataEv",
            "__ZN10MouseEvent19getLocationOnScreenEv",
            "__ZN9WorldInfo15f_borderCenterXEv",
            "__ZN9ItemStack17isItemEnchantableEv",
            "__ZN8Graphics8fillRectEiiii",
            "__ZN6Unsafe16getBooleanOpaqueE6Objectl",
            "__ZN15AttributeValues16getCharTransformE3Map",
            "__ZN18ScopedMemoryAccess28getAndBitwiseAndCharInternalE24ScopedMemoryAccess_Scope6Objectlc",
            "__ZN24ModuleDescriptor_Exports9f_targetsEv",
            "__ZN16EntityLivingBase13onDeathUpdateEv",
            "__ZN5oatpp4data7mapping4type3AnyC2Ev",
            "__ZN17CharToGlyphMapper18f_HI_SURROGATE_ENDEv",
            "__ZN5oatpp4data6buffer8IOBufferD1Ev",
            "__ZN13Authenticator15f_requestingURLEv",
            "__ZN6Unsafe27allocateUninitializedArray0E5Classi",
            "__ZN6Insets8toStringEv",
            "__ZN13URLConnection13getExpirationEv",
            "__ZN12ConstantPool11getClassAt0E6Objecti",
            "__ZN11WorldBorder15getDamageBufferEv",
            "__ZN13AbstractQueue6removeEv",
            "__ZN41ObjectInputStream_ValidationList_Callback5f_accEv",
            "__ZN9GuiScreen12mouseClickedEiii",
            "__ZN10DataFlavor6equalsE6String",
            "__ZN10ByteBuffer9compareToES_",
            "__ZN11SoundSystem16f_sourcePlayListEv",
            "__ZN12NumberFormat5parseE6String13ParsePosition",
            "__ZN18CertificateFactory11getInstanceE6String",
            "__ZN13SunGraphics2D16setRenderingHintE18RenderingHints_Key6Object",
            "__ZN24S39PacketPlayerAbilities12setWalkSpeedEf",
            "__ZN16GraphicAttribute9getBoundsEv",
            "__ZN9Character7toCharsEi5arr_Ci",
            "__ZN21AbstractStringBuilder7indexOfE6Stringi",
            "__ZN6Source6rewindEv",
            "__ZN8Material10f_circuitsEv",
            "__ZN16HashMap_TreeNode9untreeifyE7HashMap",
            "__ZN26AbstractQueuedSynchronizer7releaseEi",
            "__ZN6Entity9setEatingEb",
            "__ZN7HashMap10f_entrySetEv",
            "__ZN12ItemRenderer13func_178105_dEf",
            "__ZN27BiomeGenBase_SpawnListEntry15f_maxGroupCountEv",
            "__ZN20InputMethodHighlight10isSelectedEv",
            "__ZN6Random6f_maskEv",
            "__ZN5oatpp4base13DefaultLogger15disablePriorityEj",
            "__ZN9LocalDate11isSupportedE13TemporalField",
            "__ZN11SurfaceType9f_IntBgrxEv",
            "__ZN10LocaleData16getSupplementaryE6String6Locale",
            "__ZN24PageAttributes_MediaType21f_ISO_DESIGNATED_LONGEv",
            "__ZN10DropTarget9dragEnterE19DropTargetDragEvent",
            "__ZN7Wrapper19primitiveSimpleNameEv",
            "__ZN8MapColor12f_colorValueEv",
            "__ZN5Chunk15f_inhabitedTimeEv",
            "__ZN10BigInteger3maxES_",
            "__ZN18ScopedMemoryAccess7putLongE24ScopedMemoryAccess_Scope6Objectll",
            "__ZN9PathPoint18f_distanceToTargetEv",
            "__ZN10FileSystem12getSeparatorEv",
            "__ZN5Block13getBlockColorEv",
            "__ZN4Menu9addNotifyEv",
            "__ZN6Region15encompassesXYWHEiiii",
            "__ZN8Currency23f_defaultFractionDigitsEv",
            "__ZN14BiomeDecorator9f_dirtGenEv",
            "__ZN21MusicTicker_MusicType10f_END_BOSSEv",
            "__ZN24PageAttributes_MediaType4f_B9Ev",
            "__ZN14GraphicsDevice19getFullScreenWindowEv",
            "__ZN12MethodWriter32f_visibleAnnotableParameterCountEv",
            "__ZN16ClassSpecializer20f_CREATE_RESERVATIONEv",
            "__ZN17HttpURLConnection19f_HTTP_SERVER_ERROREv",
            "__ZN10JsonWriter4pushEi",
            "__ZN12StringBuffer11writeObjectE18ObjectOutputStream",
            "__ZN20ObjectIntIdentityMap3getE6Object",
            "__ZN10BigDecimal12scaledTenPowEiii",
            "__ZN12SimpleThread7cleanupEv",
            "__ZN6Thread11activeCountEv",
            "__ZN13StreamEncoder9implFlushEv",
            "__ZN11SoundSystem18CommandSetPositionE6Stringfff",
            "__ZN12GameSettings18f_keyBindInventoryEv",
            "__ZN13PriorityQueue9removeAllE10Collection",
            "__ZN15CalendarBuilder17f_ISO_DAY_OF_WEEKEv",
            "__ZN5oatpp4data6buffer15InlineWriteDataC2EPKvl",
            "__ZN12CalendarDate16f_TIME_UNDEFINEDEv",
            "__ZN6Thread5stop0E6Object",
            "__ZN15MinecraftServer13getMaxPlayersEv",
            "__ZN7Village27getTicksSinceLastDoorAddingEv",
            "__ZN16EntityLivingBase21applyEntityAttributesEv",
            "__ZN10MapStorage16f_loadedDataListEv",
            "__ZN20GameSettings_Options11setValueMaxEf",
            "__ZN17GraphicsPrimitive11convertFromE4Blit11SurfaceDataiiiiS1_",
            "__ZN11EntityHorse7onDeathE12DamageSource",
            "__ZN10MemberName19f_SEARCH_ALL_SUPERSEv",
            "__ZN13SoundCategory13getCategoryIdEv",
            "__ZN22ResourceBundle_Control10getFormatsE6String",
            "__ZN9Hashtable7f_countEv",
            "__ZN7Wrapper6f_BYTEEv",
            "__ZN11WeakHashMap3getE6Object",
            "__ZN16ModalEventFilter12acceptWindowE6Window",
            "__ZN16NetworkInterface8getIndexEv",
            "__ZN14BiomeDecorator15f_treesPerChunkEv",
            "__ZN15AffineTransform6equalsE6Object",
            "__ZN13ShaderManager21f_staticShaderManagerEv",
            "__ZN24S04PacketEntityEquipment11f_itemStackEv",
            "__ZN12GameSettings18f_reducedDebugInfoEv",
            "__ZN8Duration11toNanosPartEv",
            "__ZN15AffineTransform11writeObjectE18ObjectOutputStream",
            "__ZN5oatpp3web6server3api13ApiController15setEndpointInfoERKNSt3__112basic_stringIcNS4_11char_traitsIcEENS4_9allocatorIcEEEERKNS4_10shared_ptrINS2_8Endpoint4InfoEEE",
            "__ZN10CodeSource11getLocationEv",
            "__ZN10MethodType10returnTypeEv",
            "__ZN11EntityHorse17readEntityFromNBTE14NBTTagCompound",
            "__ZN15MinecraftServer15f_serverStoppedEv",
            "__ZN12BiomeGenBase19f_GRASS_COLOR_NOISEEv",
            "__ZN15InventoryPlayer12dropAllItemsEv",
            "__ZN16GraphicAttribute16f_ROMAN_BASELINEEv",
            "__ZN26ParallelListResourceBundle11resetKeySetEv",
            "__ZN5oatpp5utils10conversion11uint32ToStrEj",
            "__ZN5World16isAABBInMaterialE13AxisAlignedBB8Material",
            "__ZN15AffineTransform18f_TYPE_TRANSLATIONEv",
            "__ZN6Path2D8getPointEi",
            "__ZN5oatpp4data6stream22ConsistentOutputStream13writeAsStringEy",
            "__ZN9TypeToken16isAssignableFromE4Type",
            "__ZN13SunGraphics2D16getRenderingHintE18RenderingHints_Key",
            "__ZN13CompiledChunk14isLayerStartedE19EnumWorldBlockLayer",
            "__ZN21AbstractStringBuilder6insertEi12CharSequenceii",
            "__ZN23S18PacketEntityTeleport15writePacketDataE12PacketBuffer",
            "__ZN5World21getLightFromNeighborsE8BlockPos",
            "__ZN13SpectatorMenu16f_field_178659_hEv",
            "__ZN11PrintWriter6printfE6Locale6String16Object_interface",
            "__ZN6Thread12setPriority0Ei",
            "__ZN14EntityRenderer14enableLightmapEv",
            "__ZN11MetaMessage5cloneEv",
            "__ZN12SoundManager9stopSoundE6ISound",
            "__ZN23S18PacketEntityTeleport5f_yawEv",
            "__ZN8Collator11getInstanceE6Locale",
            "__ZN8StatBase11getStatNameEv",
            "__ZN17BoundMethodHandle13bindArgumentDEid",
            "__ZN10EnumFacing7valueOfE6String",
            "__ZN5oatpp4data6stream17BufferInputStream5resetERKNSt3__110shared_ptrINS3_12basic_stringIcNS3_11char_traitsIcEENS3_9allocatorIcEEEEEEPhlRKNS4_IvEE",
            "__ZN13SocketAddress18f_serialVersionUIDEv",
            "__ZN10HoverEvent8getValueEv",
            "__ZN6Locale15getISOCountriesE21Locale_IsoCountryCode",
            "__ZN17DrawParallelogram9traceWrapEv",
            "__ZN32ReentrantReadWriteLock_WriteLock12getHoldCountEv",
            "__ZN17HttpURLConnection8f_methodEv",
            "__ZN18ScopedMemoryAccess20getAndBitwiseXorByteE24ScopedMemoryAccess_Scope6Objectlh",
            "__ZN6Font2D14f_UNKNOWN_RANKEv",
            "__ZN11SurfaceType21f_RadialGradientPaintEv",
            "__ZN14AlphaComposite5f_DstEv",
            "__ZN14OffsetDateTime12minusSecondsEl",
            "__ZN10DataFlavor24isFlavorRemoteObjectTypeEv",
            "__ZN10MethodType7f_rtypeEv",
            "__ZN8Provider7replaceE6ObjectS0_S0_",
            "__ZN8KeyEvent10f_VK_KP_UPEv",
            "__ZN11Enchantment12f_efficiencyEv",
            "__ZN13MessageHeader8toStringEv",
            "__ZN14EntityPlayerSP20f_prevRenderArmPitchEv",
            "__ZN8Calendar15f_NARROW_FORMATEv",
            "__ZN8KeyEvent10setKeyCharEc",
            "__ZN10BigInteger8multiplyES_b",
            "__ZN6Unsafe28weakCompareAndSetCharAcquireE6Objectlcc",
            "__ZN6Raster23f_sampleModelTranslateYEv",
            "__ZN15VillageDoorInfo34resetDoorOpeningRestrictionCounterEv",
            "__ZN14NBTTagCompound8f_tagMapEv",
            "__ZN10UniqueName8toStringEv",
            "__ZN11ModuleLayer5f_CLVEv",
            "__ZN11SoundSystem23f_randomNumberGeneratorEv",
            "__ZN12ServerSocket4bindE13SocketAddress",
            "__ZN16Team_EnumVisible8f_ALWAYSEv",
            "__ZN20DateTimeParseContext10charEqualsEcc",
            "__ZN17StackTraceElement16f_declaringClassEv",
            "__ZN17ObjectInputStream8readNullEv",
            "__ZN13SunGraphics2D9drawImageE5Imageiiiiiiii13ImageObserver",
            "__ZN24ModuleDescriptor_Builder7exportsE3Set6String",
            "__ZN6Unsafe10putAddressE6Objectll",
            "__ZN5oatpp3web8protocol4http8encoding14EncoderChunked26suggestInputStreamReadSizeEv",
            "__ZN8Collator18f_NO_DECOMPOSITIONEv",
            "__ZN8Ordering15lexicographicalEv",
            "__ZN10ColorSpace11f_TYPE_CMYKEv",
            "__ZN14NBTTagCompound7readNBTEh6String9DataInputi14NBTSizeTracker",
            "__ZN21ChunkProviderSettings13f_useVillagesEv",
            "__ZN16SimpleDateFormat19subParseNumericZoneE6Stringiiib15CalendarBuilder",
            "__ZN9Component8locationEv",
            "__ZN14InventoryBasic13func_110134_aE9IInvBasic",
            "__ZN7TreeMap17f_navigableKeySetEv",
            "__ZN20LambdaForm_BasicType18isArgBasicTypeCharEc",
            "__ZN20VarHandle_AccessMode21f_GET_AND_BITWISE_ANDEv",
            "__ZN28S46PacketSetCompressionLevel14readPacketDataE12PacketBuffer",
            "__ZN11MidiChannel12checkFadeOutEv",
            "__ZN13NumericShaper9f_LAO_KEYEv",
            "__ZN11WorldServer19createChunkProviderEv",
            "__ZN19GuiPlayerTabOverlay13getPlayerNameE17NetworkPlayerInfo",
            "__ZN10ByteBuffer6equalsE6Object",
            "__ZN12MethodWriter12f_parametersEv",
            "__ZN11ModelPlayer10renderCapeEf",
            "__ZN12BiomeGenBase9f_biomeIDEv",
            "__ZN24ClassValue_ClassValueMap16overwrittenEntryE16ClassValue_Entry",
            "__ZN10Graphics2D17setRenderingHintsE3Map",
            "__ZN9Attribute21computeAttributesSizeE11SymbolTableii",
            "__ZN8AWTEvent16f_KEY_EVENT_MASKEv",
            "__ZN14BiomeDecorator16f_bigMushroomGenEv",
            "__ZN12DamageSource14setMagicDamageEv",
            "__ZN17LongHashMap_Entry8getValueEv",
            "__ZN11SurfaceData18f_AAClipColorShapeEv",
            "__ZN16EntityLivingBase22updateArmSwingProgressEv",
            "__ZN13TextAttribute13f_SWAP_COLORSEv",
            "__ZN6Random5longsElll",
            "__ZN8KeyEvent9f_keyCodeEv",
            "__ZN20GameSettings_Options22f_STREAM_SEND_METADATAEv",
            "__ZN12RenderGlobal24f_frustumUpdatePosChunkZEv",
            "__ZN12DoubleBuffer3putEiS_ii",
            "__ZN6Method20getGenericReturnTypeEv",
            "__ZN13SunGraphics2D23f_fractionalMetricsHintEv",
            "__ZN13TextAttribute22f_UNDERLINE_LOW_DOTTEDEv",
            "__ZN5oatpp5utils10conversion10strToInt32ERKNS_4data7mapping4type6StringERb",
            "__ZN29LambdaFormEditor_TransformKey24f_PACKED_BYTE_MAX_LENGTHEv",
            "__ZN17FontRenderContext12f_defaultingEv",
            "__ZN17S01PacketJoinGame13getMaxPlayersEv",
            "__ZN40ObjectOutputStream_BlockDataOutputStream5writeE5arr_Biib",
            "__ZN20TypeParameterMatcher4findE6Object5Class6String",
            "__ZN10InputEvent12f_SHIFT_MASKEv",
            "__ZN12StreamThread10errorCheckEb6String",
            "__ZN16ModuleDescriptor8toStringEv",
            "__ZN10BaseLocale5f_SEPEv",
            "__ZN26ServerConfigurationManager20recreatePlayerEntityE14EntityPlayerMPib",
            "__ZN13LocalDateTime12readExternalE9DataInput",
            "__ZN16NetworkInterface6f_nameEv",
            "__ZN40ObjectOutputStream_BlockDataOutputStream17f_MAX_HEADER_SIZEEv",
            "__ZN17C18PacketSpectate13processPacketE21INetHandlerPlayServer",
            "__ZN6Method9isDefaultEv",
            "__ZN18ScopedMemoryAccess22compareAndExchangeLongE24ScopedMemoryAccess_Scope6Objectlll",
            "__ZN8StatBase6f_typeEv",
            "__ZN4Font8getStyleEv",
            "__ZN6Random9resetSeedEl",
            "__ZN8KeyEvent13f_VK_KATAKANAEv",
            "__ZN12RenderGlobal8f_loggerEv",
            "__ZN10MemberName7f_flagsEv",
            "__ZN10FontFamily12f_familyRankEv",
            "__ZN21LightweightDispatcher15eventDispatchedE8AWTEvent",
            "__ZN11Constructor8toStringEv",
            "__ZN12MethodWriter9visitCodeEv",
            "__ZN14MethodTypeForm7f_ERASEEv",
            "__ZN9Container20getNextTransactionIDE15InventoryPlayer",
            "__ZN12PacketBuffer10isReadableEi",
            "__ZN14EntityPlayerSP18f_serverSneakStateEv",
            "__ZN8MaskFill11f_fillcacheEv",
            "__ZN17Rectangle2D_Float4getYEv",
            "__ZN13DecimalFormat9f_symbolsEv",
            "__ZN13AxisAlignedBB9isVecInXZE4Vec3",
            "__ZN15AccessibleState9f_SHOWINGEv",
            "__ZN13StrikeMetrics10f_leadingYEv",
            "__ZN22ConcurrentHashMap_Node6f_nextEv",
            "__ZN24LambdaForm_NamedFunction6memberEv",
            "__ZN5Class10getFactoryEv",
            "__ZN5oatpp4base11Environment9getLoggerEv",
            "__ZN12AbstractList12listIteratorEv",
            "__ZN6Thread13f_parkBlockerEv",
            "__ZN14FileDescriptor8f_appendEv",
            "__ZN24PageAttributes_MediaType19f_PERSONAL_ENVELOPEEv",
            "__ZN3URI10f_fragmentEv",
            "__ZN14DatagramSocket26usePlainDatagramSocketImplEv",
            "__ZN6Entity7setDeadEv",
            "__ZN7Reifier19visitShortSignatureE14ShortSignature",
            "__ZN8Duration11minusMillisEl",
            "__ZN10BaseLocale9f_GERMANYEv",
            "__ZN20VarHandle_AccessMode14f_SET_VOLATILEEv",
            "__ZN10ColorSpace11f_TYPE_2CLREv",
            "__ZN10GuiNewChat12getLineCountEv",
            "__ZN10TileEntity9isInvalidEv",
            "__ZN10MethodType6equalsES_",
            "__ZN10EventQueue8noEventsEv",
            "__ZN13AtomicBoolean7f_valueEv",
            "__ZN5oatpp5utils10conversion10strToInt64EPKc",
            "__ZN14EntityFishHook9f_fishYawEv",
            "__ZN10BigDecimal21divideToIntegralValueES_",
            "__ZN8Vector4f4getZEv",
            "__ZN11SymbolTable19f_constantPoolCountEv",
            "__ZN14OffsetDateTime12toOffsetTimeEv",
            "__ZN5Point11setLocationEdd",
            "__ZN5oatpp3web8protocol4http5Range5parseERNS_6parser5CaretE",
            "__ZN17DateFormatSymbols23f_PATTERN_WEEK_OF_MONTHEv",
            "__ZN6Unsafe9putObjectE6ObjectlS0_",
            "__ZN13ZonedDateTime26withEarlierOffsetAtOverlapEv",
            "__ZN12PacketBuffer11writerIndexEi",
            "__ZN9VarHandle23getMethodHandleUncachedEi",
            "__ZN11AbstractMap13containsValueE6Object",
            "__ZN6Unsafe17compareAndSetCharE6Objectlcc",
            "__ZN8CallSite8f_targetEv",
            "__ZN6Thread5sleepEli",
            "__ZN20S0EPacketSpawnObject8f_speedZEv",
            "__ZN9GuiButton7f_widthEv",
            "__ZN10EntityItem16writeEntityToNBTE14NBTTagCompound",
            "__ZN13PriorityQueue6siftUpEi6Object",
            "__ZN6Module20isReflectivelyOpenedE6StringS_",
            "__ZN11EntityHorse10dropChestsEv",
            "__ZN9VarHandle10setReleaseE16Object_interface",
            "__ZN6Object9notifyAllEv",
            "__ZN17GraphicsPrimitive10f_TRACELOGEv",
            "__ZN11GlyphVector17getGlyphTransformEi",
            "__ZN18ObjectOutputStream10writeCharsE6String",
            "__ZN6Unsafe26f_ARRAY_DOUBLE_INDEX_SCALEEv",
            "__ZN17DateFormatSymbols11getInstanceE6Locale",
            "__ZN11InetAddress21f_PREFER_SYSTEM_VALUEEv",
            "__ZN16ProtectionDomain19f_staticPermissionsEv",
            "__ZN7MenuBar6f_baseEv",
            "__ZN13NumericShaper9f_ctCacheEv",
            "__ZN12MethodHandle17spreadArrayChecksE5Classi",
            "__ZN15InvocationEvent10f_listenerEv",
            "__ZN11ModuleLayer29checkGetClassLoaderPermissionEv",
            "__ZN9Component8f_localeEv",
            "__ZN11WorldBorder14getResizeSpeedEv",
            "__ZN7Charset6f_nameEv",
            "__ZN16SocketPermission14f_init_with_ipEv",
            "__ZN10BigDecimal21f_HALF_LONG_MIN_VALUEEv",
            "__ZN7EnumSet10complementEv",
            "__ZN6Joiner2onE6String",
            "__ZN8TimeUnit13f_MICRO_SCALEEv",
            "__ZN13NumericShaper14f_EUROPEAN_KEYEv",
            "__ZN6Locale21f_TRADITIONAL_CHINESEEv",
            "__ZN21GraphicsConfiguration13getColorModelEi",
            "__ZN13SunGraphics2D10drawStringE6Stringii",
            "__ZN9Component28setFocusTraversalKeysEnabledEb",
            "__ZN10LongBuffer8getArrayEi5arr_Jii",
            "__ZN10Executable19declaredAnnotationsEv",
            "__ZN4Blit6locateE11SurfaceType13CompositeTypeS0_",
            "__ZN18ForwardingMultimap5clearEv",
            "__ZN12GameSettings19getOptionFloatValueE20GameSettings_Options",
            "__ZN13LocalDateTime2ofEi5Monthiii",
            "__ZN6Parsed6f_dateEv",
            "__ZN5oatpp4data6stream13WriteCallback24writeExactSizeDataSimpleEPKvl",
            "__ZN8MenuItem15f_actionCommandEv",
            "__ZN13WorldRenderer14f_rawIntBufferEv",
            "__ZN16LambdaFormBuffer9growNamesEii",
            "__ZN9JsonArray10getAsShortEv",
            "__ZN13PriorityQueue7forEachE8Consumer",
            "__ZN14CalendarSystem13getWeekLengthEv",
            "__ZN10CharBuffer4wrapE12CharSequenceii",
            "__ZN4Gson6toJsonE6Object4Type10Appendable",
            "__ZN8Vector2f5scaleEf",
            "__ZN8Vector2f4loadE11FloatBuffer",
            "__ZN8MimeType5matchES_",
            "__ZN6Module7isNamedEv",
            "__ZN13SunGraphics2D12validatePipeEv",
            "__ZN17CharToGlyphMapper12getNumGlyphsEv",
            "__ZN20TileEntityEnderChest10closeChestEv",
            "__ZN10BigDecimal10f_ONE_HALFEv",
            "__ZN12NumberFormat18isParseIntegerOnlyEv",
            "__ZN13BreakIterator7currentEv",
            "__ZN13NetworkSystem12f_eventLoopsEv",
            "__ZN14EntityPlayerMP19sendPlayerAbilitiesEv",
            "__ZN14GuiAchievement23f_permanentNotificationEv",
            "__ZN8Graphics7setFontE4Font",
            "__ZN11JsonElement14getAsCharacterEv",
            "__ZN8TimeZone14getDisplayNameEbi",
            "__ZN11Constructor13setAccessibleEb",
            "__ZN13RenderManager18f_debugBoundingBoxEv",
            "__ZN27C0FPacketConfirmTransaction14readPacketDataE12PacketBuffer",
            "__ZN14FileDescriptor9getHandleEi",
            "__ZN14HierarchyEvent14getChangeFlagsEv",
            "__ZN11WorldServer23setInitialSpawnLocationEv",
            "__ZN9Component21processComponentEventE14ComponentEvent",
            "__ZN11FontMetrics7getFontEv",
            "__ZN17ObjectInputStream5f_binEv",
            "__ZN16LocaleExtensions14f_extensionMapEv",
            "__ZN9DigitList12extendDigitsEi",
            "__ZN12RenderGlobal14f_renderEngineEv",
            "__ZN9Component4listE11PrintStreami",
            "__ZN18ScopedMemoryAccess20getAndSetLongReleaseE24ScopedMemoryAccess_Scope6Objectll",
            "__ZN22GraphicsConfigTemplate20getBestConfigurationE31GraphicsConfiguration_interface",
            "__ZN18PlayerProfileCache25getGameProfileForUsernameE6String",
            "__ZN5Color8f_ORANGEEv",
            "__ZN13SpectatorMenu16f_field_178658_jEv",
            "__ZN6String4joinE12CharSequence8Iterable",
            "__ZN5World12f_mapStorageEv",
            "__ZN11MidiChannel9resetGainEv",
            "__ZN20S3CPacketUpdateScore7f_valueEv",
            "__ZN6Entity13f_rotationYawEv",
            "__ZN6Entity16attackEntityFromE12DamageSourcef",
            "__ZN14WritableRaster9setPixelsEiiii5arr_D",
            "__ZN16AnnotationWriter6createE11SymbolTable6StringS_",
            "__ZN9Component14areBoundsValidEv",
            "__ZN9Rectangle3f_xEv",
            "__ZN12ServerSocket15getReuseAddressEv",
            "__ZN11WorldBorder18getWarningDistanceEv",
            "__ZN20MethodHandles_Lookup22makeHiddenClassDefinerE5arr_B3Setb",
            "__ZN10BaseLocale11getInstanceE6StringS0_S0_S0_",
            "__ZN5Frame28f_TOP_IF_LONG_OR_DOUBLE_FLAGEv",
            "__ZN5World13checkLightForE12EnumSkyBlock8BlockPos",
            "__ZN22ResourcePackRepository13func_148529_fEv",
            "__ZN9Throwable7f_depthEv",
            "__ZN7Reifier18visitByteSignatureE13ByteSignature",
            "__ZN20RendererLivingEntity19getDeathMaxRotationE16EntityLivingBase",
            "__ZN5oatpp4data5share11MemoryLabelC1ERKNSt3__110shared_ptrINS3_12basic_stringIcNS3_11char_traitsIcEENS3_9allocatorIcEEEEEEPKvl",
            "__ZN18PlayerUsageSnooper11f_serverUrlEv",
            "__ZN11InetAddress9getByNameE6StringS_",
            "__ZN20DecimalFormatSymbols20setExponentSeparatorE6String",
            "__ZN19ChunkProviderServer10makeStringEv",
            "__ZN6Unsafe22weakCompareAndSetShortE6Objectlss",
            "__ZN14CalendarSystem20f_GREGORIAN_INSTANCEEv",
            "__ZN12NumberFormat10readObjectE17ObjectInputStream",
            "__ZN13TreeMap_Entry7f_valueEv",
            "__ZN5Event16f_WINDOW_ICONIFYEv",
            "__ZN10TimerQueue13f_NANO_ORIGINEv",
            "__ZN24PageAttributes_MediaType4f_B6Ev",
            "__ZN11FieldWriter30f_lastRuntimeVisibleAnnotationEv",
            "__ZN10BigInteger21divideBurnikelZieglerES_",
            "__ZN11WorldClient12setWorldTimeEl",
            "__ZN18ScopedMemoryAccess27getAndBitwiseAndLongAcquireE24ScopedMemoryAccess_Scope6Objectll",
            "__ZN18LocaleNameProvider18getDisplayLanguageE6String6Locale",
            "__ZN11SoundSystem4cullE6String",
            "__ZN11GlyphVector17setGlyphTransformEi15AffineTransform",
            "__ZN12RenderGlobal16f_field_181024_nEv",
            "__ZN13IsoChronology19numberOfDaysOfMonthEii",
            "__ZN13CompositeType12makeUniqueIDE6String",
            "__ZN7Charset6f_gateEv",
            "__ZN11SoundSystem12moveListenerEfff",
            "__ZN9Character15f_MIN_SURROGATEEv",
            "__ZN18ScopedMemoryAccess19getAndAddIntAcquireE24ScopedMemoryAccess_Scope6Objectli",
            "__ZN21ChunkRenderDispatcher15f_threadFactoryEv",
            "__ZN4Menu12addSeparatorEv",
            "__ZN5Frame16f_REFERENCE_KINDEv",
            "__ZN7TreeSet11writeObjectE18ObjectOutputStream",
            "__ZN11FloatBuffer7compareEff",
            "__ZN12EntityPlayer14getDisplayNameEv",
            "__ZN13ZonedDateTime11truncatedToE12TemporalUnit",
            "__ZN6String7valueOfEl",
            "__ZN13TextAttribute18f_STRIKETHROUGH_ONEv",
            "__ZN9LocalTime20f_SECONDS_PER_MINUTEEv",
            "__ZN12GameSettings19f_chatHeightFocusedEv",
            "__ZN13SpectatorMenu16f_field_178651_fEv",
            "__ZN16ConstantPool_Tag6f_UTF8Ev",
            "__ZN17StackTraceElement12f_lineNumberEv",
            "__ZN9WorldInfo20f_DEFAULT_DIFFICULTYEv",
            "__ZN13LocalDateTime12minusSecondsEl",
            "__ZN16URLStreamHandler14getHostAddressE3URL",
            "__ZN16Provider_Service17supportsKeyFormatE3Key",
            "__ZN13CommandObject13f_FADE_OUT_INEv",
            "__ZN6Shader10loadShaderEf",
            "__ZN5oatpp4data6stream13WriteCallback5writeERNS0_6buffer15InlineWriteDataERNS_5async6ActionE",
            "__ZN11ThreadGroup3addES_",
            "__ZN11InputStream10transferToE12OutputStream",
            "__ZN9JsonToken13f_BEGIN_ARRAYEv",
            "__ZN20VarHandle_AccessType14fillParametersE15Class_interface5ClassS0_",
            "__ZN11ViewFrustum14getRenderChunkE8BlockPos",
            "__ZN5Class15isTopLevelClassEv",
            "__ZN11InputStream22f_MAX_SKIP_BUFFER_SIZEEv",
            "__ZN6Source6streamEv",
            "__ZN11DataWatcher9addObjectEi6Object",
            "__ZN29PixelToParallelogramConverter18f_normRoundingBiasEv",
            "__ZN10MemberName9isVarargsEv",
            "__ZN14EntityRenderer14updateFogColorEf",
            "__ZN20DecimalFormatSymbols12setZeroDigitEc",
            "__ZN12EntityAnimal8isInLoveEv",
            "__ZNK5oatpp3web8protocol4http8incoming7Request17getQueryParameterERKNS_4data5share14StringKeyLabelERKNS5_7mapping4type6StringE",
            "__ZN18ScopedMemoryAccess31weakCompareAndSetDoubleInternalE24ScopedMemoryAccess_Scope6Objectldd",
            "__ZN5Class13componentTypeEv",
            "__ZN13ReentrantLock17getWaitingThreadsE9Condition",
            "__ZN6Potion16f_waterBreathingEv",
            "__ZN16LambdaFormEditor18f_FOLD_SELECT_ARGSEv",
            "__ZN5oatpp3web8protocol4http8outgoing8Response12createSharedERKNS2_6StatusERKNSt3__110shared_ptrINS3_4BodyEEE",
            "__ZN6BitSet12nextClearBitEi",
            "__ZN5Frame8getLocalEi",
            "__ZN4Gson8fromJsonE6Reader4Type",
            "__ZN11MouseFilter15f_field_76336_aEv",
            "__ZN16ClassSpecializer7factoryEv",
            "__ZN17ObjectStreamClass21hasWriteReplaceMethodEv",
            "__ZN18ScopedMemoryAccess14getByteAcquireE24ScopedMemoryAccess_Scope6Objectl",
            "__ZN12MethodHandle6asTypeE10MethodType",
            "__ZN10TextureMap16getMissingSpriteEv",
            "__ZN17MutableBigInteger10mulsubLongE5arr_Iiiii",
            "__ZN11ModuleLayer9f_modulesEv",
            "__ZN10MouseEvent9f_BUTTON1Ev",
            "__ZN11FloatBuffer12f_isReadOnlyEv",
            "__ZN11WindowEvent9getWindowEv",
            "__ZN13BreakIterator20getCharacterInstanceEv",
            "__ZN21InvalidClassException18f_serialVersionUIDEv",
            "__ZN5Color7f_WHITEEv",
            "__ZN21S26PacketMapChunkBulk9getChunkXEi",
            "__ZN13ImmutableList7reverseEv",
            "__ZN13CompositeType9f_DstOverEv",
            "__ZN11EntityHorse24getHorseWatchableBooleanEi",
            "__ZN13LocalDateTime5minusEl12TemporalUnit",
            "__ZN13LocalDateTime7isAfterE19ChronoLocalDateTime",
            "__ZN6Unsafe20getAndSetCharAcquireE6Objectlc",
            "__ZN9Character15isLetterOrDigitEc",
            "__ZN13DecimalFormat23getBigDecimalMultiplierEv",
            "__ZN5Block14setCreativeTabE12CreativeTabs",
            "__ZN18AbstractChronology9resolveYDE3Map13ResolverStyle",
            "__ZN11Rectangle2D7outcodeE7Point2D",
            "__ZN8Vector4f3setEff",
            "__ZN14BufferedWriter10f_nextCharEv",
            "__ZN10DragSource24processDropActionChangedE19DragSourceDragEvent",
            "__ZN9Character18f_NON_SPACING_MARKEv",
            "__ZN15FieldRepository4makeE6String15GenericsFactory",
            "__ZN12BiomeGenBase18f_birchForestHillsEv",
            "__ZN12EntityAIBase17continueExecutingEv",
            "__ZN16EntityLivingBase10isOnLadderEv",
            "__ZN17ChunkCoordIntPair7getXEndEv",
            "__ZN5oatpp7network3tcp6server18ConnectionProviderD0Ev",
            "__ZN18ScopedMemoryAccess17putDoubleVolatileE24ScopedMemoryAccess_Scope6Objectld",
            "__ZN12PotionEffect8hashCodeEv",
            "__ZN17ShapeSpanIterator10skipDownToEi",
            "__ZN28ChannelInboundHandlerAdapter25channelWritabilityChangedE21ChannelHandlerContext",
            "__ZN14S3EPacketTeams16f_field_149318_bEv",
            "__ZN25AbstractSelectableChannel9register_E8Selectori6Object",
            "__ZN5Block20canDropFromExplosionE9Explosion",
            "__ZN14InventoryBasic12f_slotsCountEv",
            "__ZN11FloatBuffer3putEiS_ii",
            "__ZN13URLConnection24guessContentTypeFromNameE6String",
            "__ZN18ScopedMemoryAccess21getAndAddFloatReleaseE24ScopedMemoryAccess_Scope6Objectlf",
            "__ZN24LambdaForm_NamedFunction13intrinsicDataEv",
            "__ZN10GuiNewChat11resetScrollEv",
            "__ZN11ClassReader24readVerificationTypeInfoEi16Object_interfacei5arr_C15Label_interface",
            "__ZN6Unsafe11addressSizeEv",
            "__ZN11PrintWriter5printEc",
            "__ZN10EntityItem19handleWaterMovementEv",
            "__ZN13ZonedDateTime4withE16TemporalAdjuster",
            "__ZN13URLConnection9readBytesE5arr_Ii11InputStream",
            "__ZN15VillageDoorInfo13getInsidePosYEv",
            "__ZN18Rectangle2D_Double8toStringEv",
            "__ZN14ClassSignature13getSuperclassEv",
            "__ZN9GuiScreen15isKeyComboCtrlVEi",
            "__ZN17DateFormatSymbols26f_PATTERN_MONTH_STANDALONEEv",
            "__ZN13CombatTracker12func_94545_aEv",
            "__ZN24SunDropTargetContextPeer11f_currentSAEv",
            "__ZN12OutputStream5closeEv",
            "__ZN5Debug7printlnE6String",
            "__ZN16SurfaceDataProxy12f_srcTrackerEv",
            "__ZN14AccessibleRole8f_CANVASEv",
            "__ZN21PropertyChangeSupport18f_serialVersionUIDEv",
            "__ZN8AWTEvent25f_WINDOW_STATE_EVENT_MASKEv",
            "__ZN6Symbol22f_CONSTANT_PACKAGE_TAGEv",
            "__ZN8Calendar5clearEi",
            "__ZN13CommandObject6f_CULLEv",
            "__ZN40ObjectOutputStream_BlockDataOutputStream5writeE5arr_B",
            "__ZN20ObjectIntIdentityMap12f_objectListEv",
            "__ZN21AbstractStringBuilder15codePointBeforeEi",
            "__ZN32ConcurrentHashMap_CollectionView6getMapEv",
            "__ZN12MethodWriter15visitLineNumberEi5Label",
            "__ZN15MinecraftServer13f_serverProxyEv",
            "__ZN11AudioFormat11getPropertyE6String",
            "__ZN6Unsafe25getAndBitwiseOrIntReleaseE6Objectli",
            "__ZN16AbstractCalendar12getFixedDateE12CalendarDate",
            "__ZN7ByteBuf8setIndexEii",
            "__ZN5World21f_prevRainingStrengthEv",
            "__ZN11TimerThread8mainLoopEv",
            "__ZN18ObjectOutputStream17writeNonProxyDescE17ObjectStreamClassb",
            "__ZN6Unsafe26allocateUninitializedArrayE5Classi",
            "__ZN6Locale18f_DISPLAY_LANGUAGEEv",
            "__ZN3URL7fromURIE3URI",
            "__ZN10EnumFacing8getFrontEi",
            "__ZN4Vec312crossProductES_",
            "__ZN5oatpp6parser5Caret5Label8toStringEv",
            "__ZN8Material7isSolidEv",
            "__ZN9Character11f_MAX_VALUEEv",
            "__ZN8KeyEvent7f_VK_F6Ev",
            "__ZN6BitSet15checkInvariantsEv",
            "__ZN5oatpp7network3tcp6server18ConnectionProvider18ExtendedConnection21getInputStreamContextEv",
            "__ZN14WritableRaster15setDataElementsEiiii6Object",
            "__ZN19GuiPlayerTabOverlay8drawPingEiii17NetworkPlayerInfo",
            "__ZN29VertexFormatElement_EnumUsage4f_UVEv",
            "__ZN21S1BPacketEntityAttach17f_vehicleEntityIdEv",
            "__ZN20TypeParameterMatcher4failE5Class6String",
            "__ZN6String7f_UTF16Ev",
            "__ZN5World23setInitialSpawnLocationEv",
            "__ZN6Thread24f_threadLocalRandomProbeEv",
            "__ZN13SunGraphics2D9transformE15AffineTransform",
            "__ZN12AbstractList3setEi6Object",
            "__ZN15IndexColorModel27createCompatibleSampleModelEii",
            "__ZN12PacketBuffer7getCharEi",
            "__ZN11ClassLoader18retrieveDirectivesEv",
            "__ZN5oatpp4base11Environment9setLoggerERKNSt3__110shared_ptrINS0_6LoggerEEE",
            "__ZN6Window22isAlwaysOnTopSupportedEv",
            "__ZN10NBTTagList10getFloatAtEi",
            "__ZN6Unsafe28weakCompareAndSetLongAcquireE6Objectlll",
            "__ZN5Chunk14f_lastSaveTimeEv",
            "__ZN7Charset7forNameE6String",
            "__ZN17MutableBigInteger12inverseMod64El",
            "__ZN6Module23addExportsToAllUnnamed0ES_6String",
            "__ZN14C0CPacketInput9isJumpingEv",
            "__ZN8BanEntry13getBanEndDateEv",
            "__ZN6Method8leafCopyEv",
            "__ZN13StrikeMetrics5mergeES_",
            "__ZN5Class8isSealedEv",
            "__ZN12CalendarDate9f_minutesEv",
            "__ZN18ScopedMemoryAccess34getAndBitwiseOrLongReleaseInternalE24ScopedMemoryAccess_Scope6Objectll",
            "__ZN7Village22getVillageDoorInfoListEv",
            "__ZN13UserListEntry15onSerializationE10JsonObject",
            "__ZN14PageAttributes15setPrintQualityE31PageAttributes_PrintQualityType",
            "__ZN12EntitySenses17clearSensingCacheEv",
            "__ZN9ItemStack13isOnItemFrameEv",
            "__ZN3URI20f_schemeSpecificPartEv",
            "__ZN24PageAttributes_MediaType4f_A9Ev",
            "__ZN12ValidatePipe4drawE13SunGraphics2D5Shape",
            "__ZN15MinecraftServer7setMOTDE6String",
            "__ZN18ScoreboardSaveData11readFromNBTE14NBTTagCompound",
            "__ZN26ServerConfigurationManager21transferEntityToWorldE6Entityi11WorldServerS1_",
            "__ZN11ClassWriter17f_sourceFileIndexEv",
            "__ZN11ModuleLayer4bootEv",
            "__ZN14GraphicsDevice7getTypeEv",
            "__ZN7Library17libraryCompatibleEv",
            "__ZN32ConcurrentHashMap_CollectionView9retainAllE10Collection",
            "__ZN13VolatileImage16f_IMAGE_RESTOREDEv",
            "__ZN10ClassValue11f_HASH_MASKEv",
            "__ZN10BigInteger11f_LONG_MASKEv",
            "__ZN7Matcher10usePatternE7Pattern",
            "__ZN20NetHandlerPlayServer23processVanilla250PacketE22C17PacketCustomPayload",
            "__ZN10ByteBuffer6putIntEii",
            "__ZN11ClassWriter19getCommonSuperClassE6StringS0_",
            "__ZN15MinecraftServer16isBlockProtectedE5World8BlockPos12EntityPlayer",
            "__ZN9FoodStats12setFoodLevelEi",
            "__ZN7TreeMap8setColorE13TreeMap_Entryb",
            "__ZN5Class13getSimpleNameEv",
            "__ZN9IntBuffer3getEi5arr_I",
            "__ZN10LinkedList4sizeEv",
            "__ZN17ConcurrentHashMap10readObjectE17ObjectInputStream",
            "__ZN10OffsetTime2ofE9LocalTime10ZoneOffset",
            "__ZN5World22getDebugLoadedEntitiesEv",
            "__ZN15AccessibleState9f_PRESSEDEv",
            "__ZN31ObjectOutputStream_ReplaceTable4growEv",
            "__ZN10InputEvent19f_BUTTON3_DOWN_MASKEv",
            "__ZN5World13isBlockLoadedE8BlockPosb",
            "__ZN13RenderManager26getEntityClassRenderObjectE5Class",
            "__ZN16ClassSpecializer12f_topSpeciesEv",
            "__ZN31AbstractQueuedSynchronizer_Node8f_statusEv",
            "__ZN5oatpp4data6stream24InputStreamBufferedProxy21getInputStreamContextEv",
            "__ZN24AbstractClassLoaderValue6removeE11ClassLoader6Object",
            "__ZN6Region8hashCodeEv",
            "__ZN5oatpp4data7mapping12ObjectMapperC2ERKNS2_4InfoE",
            "__ZN15DragSourceEvent20getDragSourceContextEv",
            "__ZN18ObjectOutputStream11writeStringE6Stringb",
            "__ZN10OffsetTime6atDateE9LocalDate",
            "__ZN4Date13convertToAbbrE13StringBuilder6String",
            "__ZN22ResourceBundle_Control16f_FORMAT_DEFAULTEv",
            "__ZN5Frame10f_ITEM_TOPEv",
            "__ZN5oatpp7network6Server8mainLoopEPS1_",
            "__ZN12EntityLiving20getVerticalFaceSpeedEv",
            "__ZN18TextureAtlasSprite6f_maxVEv",
            "__ZN8DrawPath9traceWrapEv",
            "__ZN33DropTarget_DropTargetAutoScroller12f_hysteresisEv",
            "__ZN5Timer8scheduleE9TimerTaskl",
            "__ZN18ScopedMemoryAccess27weakCompareAndSetIntAcquireE24ScopedMemoryAccess_Scope6Objectlii",
            "__ZN20NetHandlerPlayClient14handleJoinGameE17S01PacketJoinGame",
            "__ZN12Thread_State12f_TERMINATEDEv",
            "__ZN8KeyEvent6f_VK_BEv",
            "__ZN19NumericShaper_Range6f_CHAMEv",
            "__ZN6Potion17getDurationStringE12PotionEffect",
            "__ZN9VarHandle16getAndAddReleaseE16Object_interface",
            "__ZN11EntityHorse11canMateWithE12EntityAnimal",
            "__ZN14EntityRenderer21updateShaderGroupSizeEii",
            "__ZN15ModuleReference8locationEv",
            "__ZN16InputMethodEvent31getMostRecentEventTimeForSourceE6Object",
            "__ZN14Point2D_Double4getXEv",
            "__ZN11ShortBuffer3putEi5arr_S",
            "__ZN17DateFormatSymbols8f_localeEv",
            "__ZN22ResourcePackRepository23getRepositoryEntriesAllEv",
            "__ZN23ShaderLoader_ShaderType13getShaderNameEv",
            "__ZN18ScopedMemoryAccess30getAndSetDoubleReleaseInternalE24ScopedMemoryAccess_Scope6Objectld",
            "__ZN5oatpp3web6server3api8Endpoint4infoEv",
            "__ZN16BooleanSignature11f_singletonEv",
            "__ZN5oatpp4data6buffer15InlineWriteData6setEofEv",
            "__ZN18PlayerControllerMP11sendUseItemE12EntityPlayer5World9ItemStack",
            "__ZN9Character33f_DIRECTIONALITY_BOUNDARY_NEUTRALEv",
            "__ZN15AttributeValues16setJustificationEf",
            "__ZN7Wrapper8isSignedEv",
            "__ZN19EnumEnchantmentType13f_FISHING_RODEv",
            "__ZN9GuiButton15f_displayStringEv",
            "__ZN19NumericShaper_Range10f_OL_CHIKIEv",
            "__ZN34JobAttributes_DefaultSelectionType9f_I_RANGEEv",
            "__ZN6Entity8isEatingEv",
            "__ZN16SurfaceDataProxy18f_defaultThresholdEv",
            "__ZN13WorldGenSwamp16f_field_181649_bEv",
            "__ZN10ChronoUnit9f_FOREVEREv",
            "__ZN6Buffer12nextGetIndexEi",
            "__ZN4Long8toStringEl",
            "__ZN11EntityHorse14dropChestItemsEv",
            "__ZN10BigDecimal13compactValForE10BigInteger",
            "__ZN6Source15f_rawDataStreamEv",
            "__ZN8Provider15computeIfAbsentE6Object8Function",
            "__ZN9Minecraft28isCallingFromMinecraftThreadEv",
            "__ZN14CharsetDecoder10f_ST_RESETEv",
            "__ZN20AccessControlContext19equalLimitedContextES_",
            "__ZN9Character12isWhitespaceEi",
            "__ZN20S42PacketCombatEvent14f_deathMessageEv",
            "__ZN5Class6addAllE10Collection15Field_interface",
            "__ZN10InputEvent14f_BUTTON1_MASKEv",
            "__ZN11UserListOps22getGameProfileFromNameE6String",
            "__ZN11ShortBuffer3getEi5arr_Sii",
            "__ZN17DragSourceContext9dragEnterE19DragSourceDragEvent",
            "__ZN11Framebuffer13f_depthBufferEv",
            "__ZN24ClassValue_ClassValueMap10addToCacheE10ClassValue16ClassValue_Entry",
            "__ZN23BlockRendererDispatcher20f_blockModelRendererEv",
            "__ZN15MinecraftServer21getPlayerUsageSnooperEv",
            "__ZN10BigInteger8parseIntE5arr_Cii",
            "__ZN6Window15addToWindowListEv",
            "__ZN12StreamThread16importantMessageE6String",
            "__ZN13ShaderUniform3setE8Matrix4f",
            "__ZN13LocalDateTime10adjustIntoE8Temporal",
            "__ZN6Window20createBufferStrategyEi18BufferCapabilities",
            "__ZN14ReferenceQueue13f_queueLengthEv",
            "__ZN14EntityPlayerMP10f_mcServerEv",
            "__ZN9Component11getBaselineEii",
            "__ZN14FontStrikeDesc17f_FRAC_METRICS_SPEv",
            "__ZN12NumberFormat18f_minIntegerDigitsEv",
            "__ZN6Cursor16getDefaultCursorEv",
            "__ZN12EntityAnimal15getTalkIntervalEv",
            "__ZN20S0CPacketSpawnPlayer16getCurrentItemIDEv",
            "__ZN6Object8getClassEv",
            "__ZN18ScopedMemoryAccess28getAndBitwiseXorByteInternalE24ScopedMemoryAccess_Scope6Objectlh",
            "__ZN5World15updateBlockTickE8BlockPos5Blockii",
            "__ZN14StackFrameInfo12f_memberNameEv",
            "__ZN6Buffer8positionEi",
            "__ZN13LocalDateTime13withDayOfYearEi",
            "__ZN17ObjectInputStream10readStringEv",
            "__ZN9GuiButton11f_xPositionEv",
            "__ZN6Thread7f_groupEv",
            "__ZN6Source7preLoadEv",
            "__ZN16AnnotationWriter5visitE6String6Object",
            "__ZN13BufferedImage6getRGBEii",
            "__ZN10DataBuffer8f_offsetEv",
            "__ZN16EntityLivingBase12setSprintingEb",
            "__ZN19Provider_ServiceKey6equalsE6Object",
            "__ZN15WorldGenBigTree13f_heightLimitEv",
            "__ZN9WorldInfo16setAllowCommandsEb",
            "__ZN10ChronoUnit11isDateBasedEv",
            "__ZN5Event13f_MOUSE_ENTEREv",
            "__ZN17ObjectStreamField7getTypeEv",
            "__ZN15LocaleResources20getBreakIteratorInfoE6String",
            "__ZN26ObjectInputStream_GetField3getE6Stringf",
            "__ZN11EntityArrow13setIsCriticalEb",
            "__ZN14NBTTagCompound8getFloatE6String",
            "__ZN26ServerConfigurationManager10f_mcServerEv",
            "__ZN20NetHandlerPlayClient12f_netManagerEv",
            "__ZN14ResourceBundle9getBundleE6String6Locale11ClassLoader",
            "__ZN5Block6f_maxYEv",
            "__ZN20RendererLivingEntity13setBrightnessE16EntityLivingBasefb",
            "__ZN23ShaderLoader_ShaderType15f_loadedShadersEv",
            "__ZN11SymbolTable7getTypeEi",
            "__ZN9Component22isVisible_NoClientCodeEv",
            "__ZN11Enchantment18f_baneOfArthropodsEv",
            "__ZN11GameProfile8f_legacyEv",
            "__ZN11SurfaceData12isOpaqueGrayE15IndexColorModel",
            "__ZN19EventDispatchThread11f_ANY_EVENTEv",
            "__ZN14EntityPlayerMP11getPlayerIPEv",
            "__ZN23BlockRendererDispatcher17isRenderTypeChestE5Blocki",
            "__ZN10Scoreboard14getPlayersTeamE6String",
            "__ZN14NetworkManager13f_isEncryptedEv",
            "__ZN5oatpp4base13DefaultLogger14enablePriorityEj",
            "__ZN12ListenerData10f_positionEv",
            "__ZN10LongBuffer5orderEv",
            "__ZN8Graphics8copyAreaEiiiiii",
            "__ZN14OffsetDateTime10minusNanosEl",
            "__ZN14EntityRenderer21setupOverlayRenderingEv",
            "__ZN13VolatileImage10f_IMAGE_OKEv",
            "__ZN31ReentrantReadWriteLock_ReadLock12newConditionEv",
            "__ZN33ObjectInputStream_PeekInputStream4readE5arr_Bii",
            "__ZN6Path2D8containsEdd",
            "__ZN7Package14getPackageInfoEv",
            "__ZN6Path2D8containsEdddd",
            "__ZN4Font13isTransformedEv",
            "__ZN21AbstractStringBuilder6insertEil",
            "__ZN7Matcher12replaceFirstE8Function",
            "__ZN17ObjectStreamClass22f_hasBlockExternalDataEv",
            "__ZN6Unsafe15getFloatAcquireE6Objectl",
            "__ZN8Matrix4f5f_m22Ev",
            "__ZN7HashMap19replacementTreeNodeE12HashMap_NodeS0_",
            "__ZN10IPBanEntry13getIPFromJsonE10JsonObject",
            "__ZN21ChunkRenderDispatcher8f_loggerEv",
            "__ZN21ModelResourceLocation9f_variantEv",
            "__ZN8KeyEvent11paramStringEv",
            "__ZNK5oatpp6parser5Caret11canContinueEv",
            "__ZN12BiomeGenBase13func_150557_aEib",
            "__ZN8Calendar5f_MAYEv",
            "__ZN12NumberFormat19f_minFractionDigitsEv",
            "__ZN3URL7getFileEv",
            "__ZN10DragSource27f_dragSourceMotionListenerKEv",
            "__ZN11Rectangle2D6equalsE6Object",
            "__ZN15AffineTransform14quadrantRotateEidd",
            "__ZN11ThreadGroup9enumerateE21ThreadGroup_interfaceib",
            "__ZN9TaskQueue6f_sizeEv",
            "__ZN18ScopedMemoryAccess22putByteReleaseInternalE24ScopedMemoryAccess_Scope6Objectlh",
            "__ZN11SurfaceData19f_solidTextRendererEv",
            "__ZN6Entity8f_isDeadEv",
            "__ZN8UserList12setLanServerEb",
            "__ZN9ItemStack10canDestroyE5Block",
            "__ZN17AccessibleContext31f_ACCESSIBLE_SELECTION_PROPERTYEv",
            "__ZN13IsoChronology4dateE3Eraiii",
            "__ZN13WorldRenderer12putColorRGBAEiiiii",
            "__ZN14FileDescriptor6close0Ev",
            "__ZN4Pipe4sinkEv",
            "__ZN13CommandObject13f_SET_LOOPINGEv",
            "__ZN6Entity20performHurtAnimationEv",
            "__ZN6Unsafe16putCharUnalignedE6Objectlc",
            "__ZN20S44PacketWorldBorder9f_centerXEv",
            "__ZN13ShaderUniform9markDirtyEv",
            "__ZN6Window16setWarningStringEv",
            "__ZN15SecurityManager11checkAccessE6Thread",
            "__ZN17EventListenerList6removeE5Class13EventListener",
            "__ZN20DecimalFormatSymbols10setPerMillEc",
            "__ZN11ClassLoader15registerNativesEv",
            "__ZN24PageAttributes_MediaType10f_I_JIS_B5Ev",
            "__ZN12StringBuffer6insertEid",
            "__ZN11GlyphVector14getLayoutFlagsEv",
            "__ZN8AWTEvent17f_ITEM_EVENT_MASKEv",
            "__ZN15MinecraftServer13f_authServiceEv",
            "__ZN13ShaderUniform17uploadFloatMatrixEv",
            "__ZN18ForwardingMultimap13containsEntryE6ObjectS0_",
            "__ZN8Duration4fromE14TemporalAmount",
            "__ZN37ImmutableCollection_ArrayBasedBuilder3addE6Object",
            "__ZN10DelayQueue7drainToE10Collection",
            "__ZN14BlockEventData10f_positionEv",
            "__ZN17DragSourceContext6f_OVEREv",
            "__ZN10InputEvent16f_ALT_GRAPH_MASKEv",
            "__ZN28AbstractClassLoaderValue_Sub8hashCodeEv",
            "__ZN5oatpp4data6buffer8IOBufferD0Ev",
            "__ZN14TextureManager15f_listTickablesEv",
            "__ZN14PageAttributes22f_orientationRequestedEv",
            "__ZN12ItemRenderer24transformFirstPersonItemEff",
            "__ZN13SunGraphics2D9constrainEiiii",
            "__ZN3URI8f_H_PATHEv",
            "__ZN10ValueRange15checkValidValueEl13TemporalField",
            "__ZN18PlayerControllerMP11setGameTypeE22WorldSettings_GameType",
            "__ZN8Provider3getE6Object",
            "__ZN17DragSourceContext13getDragSourceEv",
            "__ZN21C0BPacketEntityAction15writePacketDataE12PacketBuffer",
            "__ZN9Component11isFocusableEv",
            "__ZN14EntityPlayerSP23updateEntityActionStateEv",
            "__ZN14PlatformLogger7warningE6String9Throwable",
            "__ZN17ConcurrentHashMap9untreeifyE22ConcurrentHashMap_Node",
            "__ZN8MenuItem11setShortcutE12MenuShortcut",
            "__ZN6Locale16getDisplayStringE6StringS0_S_i",
            "__ZN12EntityAIBase11f_mutexBitsEv",
            "__ZN25Dialog_ModalExclusionType17f_TOOLKIT_EXCLUDEEv",
            "__ZN12GameSettings18f_ambientOcclusionEv",
            "__ZN5Frame21f_initializationCountEv",
            "__ZN29C07PacketPlayerDigging_Action20f_STOP_DESTROY_BLOCKEv",
            "__ZN16AnnotationWriter13f_symbolTableEv",
            "__ZN6Period10withMonthsEi",
            "__ZN27S11PacketSpawnExperienceOrb6f_posXEv",
            "__ZN17StackTraceElement8toStringEv",
            "__ZN12BaseCalendar8validateE12CalendarDate",
            "__ZN11SoundSystem18newStreamingSourceEb6StringS0_bfffif",
            "__ZN11SurfaceData16f_aaTextRendererEv",
            "__ZN9Container14retrySlotClickEiib12EntityPlayer",
            "__ZN6Source12f_sourcenameEv",
            "__ZN25C02PacketUseEntity_Action10f_INTERACTEv",
            "__ZN12MethodWriter4f_NAEv",
            "__ZN15VillageDoorInfo17f_insideDirectionEv",
            "__ZN14EntityPlayerMP11getStatFileEv",
            "__ZN11EntityArrow10f_inGroundEv",
            "__ZN9Character11isUpperCaseEi",
            "__ZN19ImmutableCollection9removeAllE10Collection",
            "__ZN11PrintWriter7printlnE6String",
            "__ZN17DateFormatSymbols21f_PATTERN_DAY_OF_WEEKEv",
            "__ZN14FileDescriptor4f_fdEv",
            "__ZN10CodeSource10f_locationEv",
            "__ZN12ItemRenderer13func_178101_aEff",
            "__ZN16EntityLivingBase13func_110146_fEff",
            "__ZN19GameRules_ValueType11f_ANY_VALUEEv",
            "__ZN12EntityPlayer13f_chasingPosYEv",
            "__ZN12VertexFormat12f_nextOffsetEv",
            "__ZN13IsoChronology11dateYearDayE3Eraii",
            "__ZN5oatpp3web6server3api13ApiController30setDefaultAuthorizationHandlerERKNSt3__110shared_ptrINS1_7handler20AuthorizationHandlerEEE",
            "__ZN6Unsafe16getObjectAcquireE6Objectl",
            "__ZN11BasicStroke12f_CAP_SQUAREEv",
            "__ZN10DragSource16getDragThresholdEv",
            "__ZN18S21PacketChunkData13func_179757_aE5arr_BS0_i",
            "__ZN13LocalDateTime4plusEl12TemporalUnit",
            "__ZN18TextureAtlasSprite10getOriginYEv",
            "__ZN7Pattern1NEv",
            "__ZN25ChunkCompileTaskGenerator16setCompiledChunkE13CompiledChunk",
            "__ZN6String8f_LATIN1Ev",
            "__ZN6Socket12getKeepAliveEv",
            "__ZN15FieldRepository13f_genericTypeEv",
            "__ZN8Matrix4f3addES_S_S_",
            "__ZN9GuiIngame16renderHotbarItemEiiif12EntityPlayer",
            "__ZN7MenuBar18f_serialVersionUIDEv",
            "__ZN14EntityPlayerSP14f_timeInPortalEv",
            "__ZN26AbstractQueuedSynchronizer22getSharedQueuedThreadsEv",
            "__ZN9JsonArray10f_elementsEv",
            "__ZN12DamageSource13isMagicDamageEv",
            "__ZN11PrintStream5closeEv",
            "__ZN11RenderLoops23f_fillParallelogramLoopEv",
            "__ZN12MethodHandle10setVarargsE10MemberName",
            "__ZN7Library18millisecondsPlayedE6String",
            "__ZN11WorldBorder9setCenterEdd",
            "__ZN10Dictionary8elementsEv",
            "__ZN16LambdaFormBuffer7indexOfE24LambdaForm_NamedFunction4List",
            "__ZN10GuiNewChat16f_field_146253_iEv",
            "__ZN13ZonedDateTime12minusMinutesEl",
            "__ZN9Minecraft14f_gameSettingsEv",
            "__ZN10LinkedList21removeFirstOccurrenceE6Object",
            "__ZN12FontRenderer14getStringWidthE6String",
            "__ZN11PrintWriter10ensureOpenEv",
            "__ZN18ClassValue_Version9f_promiseEv",
            "__ZN24PageAttributes_MediaType4f_B1Ev",
            "__ZN15ScorePlayerTeam20getNameTagVisibilityEv",
            "__ZN11SurfaceData10f_compPipeEv",
            "__ZN11SurfaceType21f_DESC_4BYTE_ABGR_PREEv",
            "__ZN9Crossings6recordEddi",
            "__ZN10MethodType18parameterSlotCountEv",
            "__ZN6Path2D12f_SEG_LINETOEv",
            "__ZN7HashSet10readObjectE17ObjectInputStream",
            "__ZN11WindowEvent21f_WINDOW_GAINED_FOCUSEv",
            "__ZN13SunGraphics2D6clipToE9RectangleS0_",
            "__ZN6Unsafe19getAndAddIntAcquireE6Objectli",
            "__ZN8Ordering18f_RIGHT_IS_GREATEREv",
            "__ZN9Component16getIgnoreRepaintEv",
            "__ZN11WorldClient18f_entitySpawnQueueEv",
            "__ZN13URLConnection30setDefaultAllowUserInteractionEb",
            "__ZN4Long17parseUnsignedLongE12CharSequenceiii",
            "__ZN14DatagramSocket12setBroadcastEb",
            "__ZN14EntityCreature10detachHomeEv",
            "__ZN10Graphics2D10drawStringE27AttributedCharacterIteratorii",
            "__ZN11RenderChunk16setCompiledChunkE13CompiledChunk",
            "__ZN16SocketPermission13f_DEF_EPH_LOWEv",
            "__ZN12DoubleBuffer3putE5arr_Dii",
            "__ZN15AffineTransform9transformE5arr_Fi5arr_Dii",
            "__ZN18DirectMethodHandle18preparedLambdaFormE10MemberNameb",
            "__ZN10ChronoUnit7valueOfE6String",
            "__ZN9VarHandle17describeConstableEv",
            "__ZN14DatagramPacket10setAddressE11InetAddress",
            "__ZN16EnumBorderStatus9f_GROWINGEv",
            "__ZN5oatpp4data6buffer10FIFOBufferC2EPvlllb",
            "__ZN5Chunk11setLightForE12EnumSkyBlock8BlockPosi",
            "__ZN42JobAttributes_MultipleDocumentHandlingType38f_I_SEPARATE_DOCUMENTS_COLLATED_COPIESEv",
            "__ZN6String12replaceFirstES_S_",
            "__ZN11PrintWriter7f_psOutEv",
            "__ZN21MimeTypeParameterList11f_TSPECIALSEv",
            "__ZN13MenuComponent11paramStringEv",
            "__ZN24ModuleDescriptor_Builder6f_openEv",
            "__ZN16NetworkInterface6isP2P0E6Stringi",
            "__ZN20StructureBoundingBox8toStringEv",
            "__ZN9SoundList18canReplaceExistingEv",
            "__ZN10CharBuffer4flipEv",
            "__ZN9TaskQueue9removeMinEv",
            "__ZN19ChunkProviderClient9loadChunkEii",
            "__ZN23ThreadDownloadImageData13f_imageThreadEv",
            "__ZN6Thread4stopEv",
            "__ZN16EntityLivingBase22f_maxHurtResistantTimeEv",
            "__ZN10MemberName7getNameEv",
            "__ZN23JobAttributes_SidesType21f_TWO_SIDED_LONG_EDGEEv",
            "__ZN5oatpp7network3tcp6server18ConnectionProviderC1ERKNS0_7AddressEb",
            "__ZN16LambdaFormBuffer23clearDuplicatesAndNullsEv",
            "__ZN20PermissionCollection11setReadOnlyEv",
            "__ZN11PerfCounter7addTimeEl",
            "__ZN24ClassSpecializer_Factory11findGettersE5Class4List",
            "__ZN15DataInputStream9skipBytesEi",
            "__ZN26S2CPacketSpawnGlobalEntity13func_149053_gEv",
            "__ZN4Blit9traceWrapEv",
            "__ZN16NetworkInterface18isBoundInetAddressE11InetAddress",
            "__ZN11ClassWriter34f_lastRuntimeVisibleTypeAnnotationEv",
            "__ZN14EntityPlayerSP23addChatComponentMessageE14IChatComponent",
            "__ZN20S0DPacketCollectItem11getEntityIDEv",
            "__ZN16EntityLivingBase8isOnTeamE4Team",
            "__ZN12MethodHandle12linkToNativeE16Object_interface",
            "__ZN16AccessibleObject15checkPermissionEv",
            "__ZN32ObjectStreamClass_FieldReflector17setObjFieldValuesE6Object16Object_interfaceb",
            "__ZN11SoundSystem10newLibraryE5Class",
            "__ZN13JsonPrimitive14getAsCharacterEv",
            "__ZN18TransformAttribute11readResolveEv",
            "__ZN11CoreMetrics8hashCodeEv",
            "__ZN18ObjectOutputStream20writeClassDescriptorE17ObjectStreamClass",
            "__ZN8Collator7compareE6StringS0_",
            "__ZN21AbstractStringBuilder6appendE6Object",
            "__ZN15WorldGenBigTree9f_basePosEv",
            "__ZN10FileSystem7compareE4FileS0_",
            "__ZN10LinkedList5clearEv",
            "__ZN19GuiPlayerTabOverlay16f_lastTimeOpenedEv",
            "__ZN11SurfaceData9getBoundsEv",
            "__ZN31PlayerProfileCache_ProfileEntry13f_gameProfileEv",
            "__ZN9PathPoint10f_previousEv",
            "__ZN3Gui29drawScaledCustomSizeModalRectEiiffiiiiff",
            "__ZN9ArrayList7indexOfE6Object",
            "__ZN5Class17describeConstableEv",
            "__ZN9VarHandle14accessModeTypeEi",
            "__ZN11SoundSystem7messageE6Stringi",
            "__ZN15AffineTransform6rotateEd",
            "__ZN20GameSettings_Options13getEnumStringEv",
            "__ZN6Buffer5clearEv",
            "__ZN11WorldBorder9getStatusEv",
            "__ZN9Minecraft9startGameEv",
            "__ZN11SampleModel18getNumDataElementsEv",
            "__ZN13SunGraphics2D11drawPolygonE5arr_IS0_i",
            "__ZN14EntityRenderer13f_cameraPitchEv",
            "__ZN15DatagramChannel10disconnectEv",
            "__ZN16SurfaceDataProxy5flushEb",
            "__ZN34DateTimeFormatterBuilder_DayPeriod6f_fromEv",
            "__ZN11ClassReader12getSuperNameEv",
            "__ZN6Window24setGraphicsConfigurationE21GraphicsConfiguration",
            "__ZN12GameSettings16f_field_181150_UEv",
            "__ZN21ConstructorRepository5parseE6String",
            "__ZN14EntityRenderer12getMouseOverEf",
            "__ZN9Component9addNotifyEv",
            "__ZN9Character8hashCodeEc",
            "__ZN14EntityPlayerSP19isCurrentViewEntityEv",
            "__ZN10JsonReader23consumeNonExecutePrefixEv",
            "__ZN23S18PacketEntityTeleport4getZEv",
            "__ZN6Locale10setDefaultES_",
            "__ZN11BasicStroke18createStrokedShapeE5Shape",
            "__ZN19VertexFormatElement8f_LOGGEREv",
            "__ZN14EntityRenderer14updateRendererEv",
            "__ZN20StructureBoundingBox14intersectsWithES_",
            "__ZN8KeyEvent10readObjectE17ObjectInputStream",
            "__ZN15AttributeValues5mergeES_",
            "__ZN6Random22f_haveNextNextGaussianEv",
            "__ZN5oatpp6parser4json7mapping12Deserializer11deserializeERNS0_5CaretEPKNS_4data7mapping4type4TypeE",
            "__ZN8Graphics9drawImageE5Imageii5Color13ImageObserver",
            "__ZN15IndexColorModel8hashCodeEv",
            "__ZN5oatpp4data7mapping4type3DTO13getParentTypeEv",
            "__ZN24S39PacketPlayerAbilities14f_invulnerableEv",
            "__ZN10FontStrike10f_boldnessEv",
            "__ZN20DecimalFormatSymbols11f_zeroDigitEv",
            "__ZN9JsonArray3addE11JsonElement",
            "__ZN18TransformAttribute11f_transformEv",
            "__ZN20EnumPlayerModelParts13func_179326_dEv",
            "__ZN28ClassSpecializer_SpeciesData6getterEi",
            "__ZN11ClassLoader22desiredAssertionStatusE6String",
            "__ZN11MidiChannel15f_CHANGE_VOLUMEEv",
            "__ZN17ObjectStreamField10isUnsharedEv",
            "__ZN9Container11getCanCraftE12EntityPlayer",
            "__ZN10MemberName19getMethodDescriptorEv",
            "__ZN10Scoreboard12func_96533_cE14ScoreObjective",
            "__ZN12RenderGlobal13generateStarsEv",
            "__ZN14EntityPlayerSP14addChatMessageE14IChatComponent",
            "__ZN21ChunkProviderSettings17f_mainNoiseScaleXEv",
            "__ZN12DamageSource8f_cactusEv",
            "__ZN5Class7forNameE6String",
            "__ZN14PageAttributes29setPrinterResolutionToDefaultEv",
            "__ZN3URL18lookupViaProvidersE6String",
            "__ZN8KeyEvent13f_VK_KP_RIGHTEv",
            "__ZN21AbstractStringBuilder7indexOfE6String",
            "__ZN19VertexFormatElement17isPositionElementEv",
            "__ZN13AtomicBoolean9getAndSetEb",
            "__ZN39ReentrantReadWriteLock_Sync_HoldCounter5f_tidEv",
            "__ZN18DirectMethodHandle15f_NF_staticBaseEv",
            "__ZN18ObjectOutputStream10writeShortEi",
            "__ZN10ByteBuffer9putBufferEiS_ii",
            "__ZN6Cursor19f_CURSOR_DOT_PREFIXEv",
            "__ZN11CoderResult15f_CR_UNMAPPABLEEv",
            "__ZN22S10PacketSpawnPainting13processPacketE21INetHandlerPlayClient",
            "__ZN12PacketBuffer9readBytesE12OutputStreami",
            "__ZN6Entity17canTriggerWalkingEv",
            "__ZN19DragSourceDragEvent12f_dropActionEv",
            "__ZN10Properties4saveE12OutputStream6String",
            "__ZN17BaseCalendar_Date3hitEl",
            "__ZN27ReentrantReadWriteLock_Sync14f_SHARED_SHIFTEv",
            "__ZN16Joiner_MapJoiner8appendToE10Appendable8Iterable",
            "__ZN13EntityAgeable13setGrowingAgeEi",
            "__ZN6Line2D8containsE11Rectangle2D",
            "__ZN4Menu9f_tearOffEv",
            "__ZN5Frame7f_ownerEv",
            "__ZN10DateFormat12f_YEAR_FIELDEv",
            "__ZN11SoundSystem12CommandFlushE6String",
            "__ZN10OffsetTime11toLocalTimeEv",
            "__ZN16JsonBlendingMode13func_148110_aE10JsonObject",
            "__ZN7Toolkit23isModalityTypeSupportedE19Dialog_ModalityType",
            "__ZN15InvocationEvent8dispatchEv",
            "__ZN12Path2D_Float6lineToEff",
            "__ZN11SoundSystem4initE5Class",
            "__ZN10MemberName18f_CALLER_SENSITIVEEv",
            "__ZN11WorldClient12updateBlocksEv",
            "__ZN7Toolkit17getBestCursorSizeEii",
            "__ZN18DateFormatProvider15getDateInstanceEi6Locale",
            "__ZN13ZonedDateTime9plusHoursEl",
            "__ZN8MapColor14f_foliageColorEv",
            "__ZN11CoderResult14f_CR_UNDERFLOWEv",
            "__ZThn8_N5oatpp3web6server7handler19DefaultErrorHandler11handleErrorERKNS0_8protocol4http6StatusERKNS_4data7mapping4type6StringERKNS9_5share21LazyStringMapTemplateINSF_16StringKeyLabelCIENSt3__118unordered_multimapISH_NSF_14StringKeyLabelENSI_4hashISH_EENSI_8equal_toISH_EENSI_9allocatorINSI_4pairIKSH_SK_EEEEEEEE",
            "__ZN8EntityFX9setAlphaFEf",
            "__ZN16HashMap_TreeNode5splitE7HashMap22HashMap_Node_interfaceii",
            "__ZN25ChunkCompileTaskGenerator6f_lockEv",
            "__ZN6Dialog13setBackgroundE5Color",
            "__ZN8Provider18ensureLegacyParsedEv",
            "__ZN5Event12f_clickCountEv",
            "__ZN9Character11f_MAX_RADIXEv",
            "__ZN8Ordering10greatestOfE8Iterablei",
            "__ZN14TileEntitySign11setEditableEb",
            "__ZN11ModelPlayer11f_smallArmsEv",
            "__ZN5Month5f_MAYEv",
            "__ZN34ItemCameraTransforms_TransformType6f_NONEEv",
            "__ZN11ThreadLocal12nextHashCodeEv",
            "__ZN5World12isAreaLoadedE8BlockPosib",
            "__ZN14DatagramSocket9f_factoryEv",
            "__ZN9Throwable15f_CAUSE_CAPTIONEv",
            "__ZN6Locale11getInstanceE6StringS0_S0_S0_16LocaleExtensions",
            "__ZN24SunDropTargetContextPeer15f_DISPATCH_SYNCEv",
            "__ZN18TransformAttribute11writeObjectE18ObjectOutputStream",
            "__ZN9DigitList15setRoundingModeE12RoundingMode",
            "__ZN13MethodVisitor19visitInsnAnnotationEi8TypePath6Stringb",
            "__ZN12DoubleBuffer5limitEi",
            "__ZN6Entity20setPositionAndUpdateEddd",
            "__ZN6Unsafe26getAndBitwiseXorIntAcquireE6Objectli",
            "__ZN9GuiScreen27drawCreativeTabHoveringTextE6Stringii",
            "__ZN10DataFlavor15f_allHtmlFlavorEv",
            "__ZN18AbstractChronology3of0E6String",
            "__ZN12StringBuffer6insertEi5arr_Cii",
            "__ZN14NBTTagCompound10getBooleanE6String",
            "__ZN16PhantomCleanable6f_nextEv",
            "__ZN29C08PacketPlayerBlockPlacement8getStackEv",
            "__ZN5oatpp4data6stream30StatelessDataTransferProcessor26suggestInputStreamReadSizeEv",
            "__ZN4File6isFileEv",
            "__ZN10Properties11putIfAbsentE6ObjectS0_",
            "__ZN7ByteBuf9writeZeroEi",
            "__ZN10OffsetTime10withMinuteEi",
            "__ZN8CallSite15wrongTargetTypeE12MethodHandle10MethodType",
            "__ZN20TypeParameterMatcher6f_NOOPEv",
            "__ZN9LocalDate17getProlepticMonthEv",
            "__ZN17FilterInputStream5closeEv",
            "__ZN11WorldBorder4minXEv",
            "__ZN16EntityMoveHelper9setMoveToEdddd",
            "__ZN27S44PacketWorldBorder_Action10f_SET_SIZEEv",
            "__ZN5oatpp3web8protocol4http8outgoing15ResponseFactory14createResponseERKNS2_6StatusE",
            "__ZN8Material13isReplaceableEv",
            "__ZN9Component21setFocusTraversalKeysEi3Set",
            "__ZN20StructureBoundingBox13func_175899_aEiiiiii",
            "__ZN17DateTimeFormatter15ofLocalizedTimeE11FormatStyle",
            "__ZN19DragSourceDropEvent12f_dropActionEv",
            "__ZN10BaseLocale20f_SIMPLIFIED_CHINESEEv",
            "__ZN5Event5f_evtEv",
            "__ZN38ObjectInputStream_BlockDataInputStream11readUTFCharE13StringBuilderl",
            "__ZN6Period4plusE14TemporalAmount",
            "__ZN17ObjectStreamField11f_signatureEv",
            "__ZN9FoodStats15f_prevFoodLevelEv",
            "__ZN14GraphicsDevice14setDisplayModeE11DisplayMode",
            "__ZN6Unsafe20shouldBeInitialized0E5Class",
            "__ZN13EntityTracker11trackEntityE6Entityii",
            "__ZN9Character39f_DIRECTIONALITY_RIGHT_TO_LEFT_OVERRIDEEv",
            "__ZN5oatpp4data5share14StringKeyLabelC1ERKNSt3__110shared_ptrINS3_12basic_stringIcNS3_11char_traitsIcEENS3_9allocatorIcEEEEEEPKcl",
            "__ZN13SocketChannel4openE14ProtocolFamily",
            "__ZN16Provider_Service12f_classCacheEv",
            "__ZN8Splitter21withKeyValueSeparatorE6String",
            "__ZN8Graphics9drawImageE5Imageiiii5Color13ImageObserver",
            "__ZN9LocalDate4plusE14TemporalAmount",
            "__ZN14EntityCreature7hasPathEv",
            "__ZN11SurfaceData12f_LOOP_FOUNDEv",
            "__ZN19EnumEnchantmentType11f_BREAKABLEEv",
            "__ZN10SocketImpl13shutdownInputEv",
            "__ZN14EntityCreature21f_maximumHomeDistanceEv",
            "__ZN6Thread14f_MIN_PRIORITYEv",
            "__ZN8KeyEvent7f_VK_UPEv",
            "__ZN17ObjectInputStream15f_enableResolveEv",
            "__ZN13SoundCategory11getCategoryE6String",
            "__ZN16SocketPermission6equalsE6Object",
            "__ZN4Team20getAllowFriendlyFireEv",
            "__ZN6Period8withDaysEi",
            "__ZN9IntBuffer5clearEv",
            "__ZN37AttributedCharacterIterator_Attribute6equalsE6Object",
            "__ZN7ByteBuf13readableBytesEv",
            "__ZN13BufferedImage8copyDataE14WritableRaster",
            "__ZN16LocaleExtensions4f_idEv",
            "__ZN12InputContext13dispatchEventE8AWTEvent",
            "__ZN3URI12f_L_SCOPE_IDEv",
            "__ZN9LocalDate6atTimeE9LocalTime",
            "__ZN13NumericShaper9f_stCacheEv",
            "__ZN38ObjectInputStream_BlockDataInputStream11readLongUTFEv",
            "__ZN6Unsafe24compareAndExchangeDoubleE6Objectldd",
            "__ZN11ThreadGroup11activeCountEv",
            "__ZN7Integer11doubleValueEv",
            "__ZN20VarHandle_AccessMode28f_GET_AND_BITWISE_OR_RELEASEEv",
            "__ZN6Locale4f_USEv",
            "__ZN15WorldGenBigTree13func_181631_aE8BlockPosf11IBlockState",
            "__ZN13DecimalFormat25formatToCharacterIteratorE6Object",
            "__ZN10EventQueue18coalescePaintEventE10PaintEvent",
            "__ZN13SunGraphics2D13f_STROKE_THINEv",
            "__ZN5Chunk17getAreLevelsEmptyEii",
            "__ZN14EntityRenderer10f_cloudFogEv",
            "__ZN20StructureBoundingBox6f_maxZEv",
            "__ZN11WorldBorder13getTargetSizeEv",
            "__ZN15LambdaForm_Kind12f_GET_DOUBLEEv",
            "__ZN6Source5f_GETEv",
            "__ZN5World13f_cloudColourEv",
            "__ZN8Calendar12f_AM_PM_MASKEv",
            "__ZN23S38PacketPlayerListItem9f_playersEv",
            "__ZN10CharBuffer3putE6Stringii",
            "__ZN10FontFamily7f_plainEv",
            "__ZN9ItemStack11getMetadataEv",
            "__ZN20GameSettings_Options23f_CHAT_HEIGHT_UNFOCUSEDEv",
            "__ZN19Package_VersionInfo13f_specVersionEv",
            "__ZN11GsonBuilder32enableComplexMapKeySerializationEv",
            "__ZN9Component25getBaselineResizeBehaviorEv",
            "__ZN6Unsafe6getIntE6Objectl",
            "__ZN18AbstractChronology8ofLocaleE6Locale",
            "__ZN31BufferCapabilities_FlipContents7f_PRIOREv",
            "__ZN14HierarchyEvent17f_HIERARCHY_FIRSTEv",
            "__ZN8Currency14getNumericCodeEv",
            "__ZN18ScopedMemoryAccess38compareAndExchangeFloatReleaseInternalE24ScopedMemoryAccess_Scope6Objectlff",
            "__ZN16ResourceLocation15getResourcePathEv",
            "__ZN5Block14f_slipperinessEv",
            "__ZN6Region11getInstanceES_b5Shape15AffineTransform",
            "__ZN12SelectionKey9f_OP_READEv",
            "__ZN8Optional6filterE9Predicate",
            "__ZN10OffsetTime2ofEiiii10ZoneOffset",
            "__ZN8Material9f_canBurnEv",
            "__ZN16AbstractCalendar15getNthDayOfWeekEii12CalendarDate",
            "__ZN15AffineTransform10f_HI_SCALEEv",
            "__ZN20EnumPlayerModelParts10f_partNameEv",
            "__ZN7Polygon12updateBoundsEii",
            "__ZN9Container14putStackInSlotEi9ItemStack",
            "__ZN12StringBuffer7replaceEii6String",
            "__ZN24PageAttributes_MediaType8f_ISO_C3Ev",
            "__ZN10BigInteger8toStringES_13StringBuilderii",
            "__ZN17ObjectStreamField9compareToE6Object",
            "__ZN10DelayQueue4sizeEv",
            "__ZN15IndexColorModel20convertToIntDiscreteE6Rasterb",
            "__ZN18ScopedMemoryAccess13forceInternalE24ScopedMemoryAccess_Scope14FileDescriptorlbll",
            "__ZN18ScopedMemoryAccess15registerNativesEv",
            "__ZN10Graphics2D16getRenderingHintE18RenderingHints_Key",
            "__ZN6Unsafe19getReferenceAcquireE6Objectl",
            "__ZN8KeyEvent6f_VK_SEv",
            "__ZN6Locale18convertOldISOCodesE6String",
            "__ZN18PlayerControllerMP19onPlayerDamageBlockE8BlockPos10EnumFacing",
            "__ZN5Label9getOffsetEv",
            "__ZN13CommandThread7cleanupEv",
            "__ZN18DirectMethodHandle12f_IMPL_NAMESEv",
            "__ZN13ServiceLoader4loadE5Class",
            "__ZN21AbstractStringBuilder16f_MAX_ARRAY_SIZEEv",
            "__ZN5oatpp4data5share16StringKeyLabelCIC2ERKNS0_7mapping4type6StringE",
            "__ZN14MethodTypeForm11f_basicTypeEv",
            "__ZN14EntityPlayerMP18addExperienceLevelEi",
            "__ZN17ObjectInputStream9skipBytesEi",
            "__ZN8Calendar13f_ZONE_OFFSETEv",
            "__ZN8Vector3D8toStringEv",
            "__ZN8AWTEvent22f_CONTAINER_EVENT_MASKEv",
            "__ZN11Achievement24f_achievementDescriptionEv",
            "__ZN21C16PacketClientStatus13processPacketE21INetHandlerPlayServer",
            "__ZN6Raster9getSampleEiii",
            "__ZN13SunGraphics2D15f_defaultStrokeEv",
            "__ZN10DateFormat10setLenientEb",
            "__ZN13NumericShaper9f_TIBETANEv",
            "__ZN23ThreadDownloadImageData11f_cacheFileEv",
            "__ZN9Component16lightweightPaintE8Graphics",
            "__ZN11WorldServer21resetUpdateEntityTickEv",
            "__ZN4Item16hasContainerItemEv",
            "__ZN12EntityPlayer11isAllowEditEv",
            "__ZN17SelectableChannel6keyForE8Selector",
            "__ZN6Unsafe27getAndBitwiseAndByteAcquireE6Objectlh",
            "__ZN7KeyPair10getPrivateEv",
            "__ZN9GuiIngame21renderStreamIndicatorE16ScaledResolution",
            "__ZN12PacketBuffer13readableBytesEv",
            "__ZN9GuiScreen11f_labelListEv",
            "__ZN10EventQueue18f_threadInitNumberEv",
            "__ZN13ImmutableList2ofE6ObjectS0_S0_S0_S0_S0_S0_S0_S0_",
            "__ZN4Enum16readObjectNoDataEv",
            "__ZN20NetHandlerPlayClient16handleTimeUpdateE19S03PacketTimeUpdate",
            "__ZN12Session_Type13f_sessionTypeEv",
            "__ZN13ShaderManager9markDirtyEv",
            "__ZN16BlockStateMapper15f_blockStateMapEv",
            "__ZN14EntityPlayerSP13sendHorseJumpEv",
            "__ZN17GraphicsPrimitive13getSourceTypeEv",
            "__ZN13PriorityQueue8siftDownEi6Object",
            "__ZN6Font2D7f_styleEv",
            "__ZN9Component14getMaximumSizeEv",
            "__ZN12HashMap_Node8getValueEv",
            "__ZN13SunGraphics2D15intersectShapesE5ShapeS0_bb",
            "__ZN21AccessibleRelationSet6removeE18AccessibleRelation",
            "__ZN12RenderGlobal9renderSkyE13WorldRendererfb",
            "__ZN17ConcurrentHashMap12reduceValuesEl8Function10BiFunction",
            "__ZN12BiomeGenBase11f_swamplandEv",
            "__ZN13ZonedDateTime5parseE12CharSequence",
            "__ZN12SoundManager9f_optionsEv",
            "__ZN10ClassValue9f_versionEv",
            "__ZN14BiomeDecorator16f_field_180294_cEv",
            "__ZN9Minecraft7crashedE11CrashReport",
            "__ZN7Integer6f_TYPEEv",
            "__ZN7Matcher9f_oldLastEv",
            "__ZN11EntityHorse12isAdultHorseEv",
            "__ZN11CharMatcher7f_DIGITEv",
            "__ZN11WeakHashMap26f_DEFAULT_INITIAL_CAPACITYEv",
            "__ZN14EntityRenderer11f_fogColor2Ev",
            "__ZN9Component13getDropTargetEv",
            "__ZN24ModuleDescriptor_Version5parseE6String",
            "__ZN10BigInteger4mod2Ei",
            "__ZN16IntegratedServer13getDifficultyEv",
            "__ZN8Vector3f3f_yEv",
            "__ZN24PageAttributes_MediaType8f_ISO_C0Ev",
            "__ZN13ModelRenderer6addBoxE6Stringfffiii",
            "__ZN18MemberName_Factory9getFieldsE5ClassbS0_",
            "__ZN20FocusTraversalPolicy17getFirstComponentE9Container",
            "__ZN5Vec3i9compareToES_",
            "__ZN16NetworkInterface9getByNameE6String",
            "__ZN8MapColor12f_adobeColorEv",
            "__ZN10BiomeCache18getBiomeCacheBlockEii",
            "__ZN8Matrix4f9translateE8Vector2fS_S_",
            "__ZN10EntityItem22f_delayBeforeCanPickupEv",
            "__ZN6Entity8rayTraceEdf",
            "__ZN6Unsafe15getAndSetObjectE6ObjectlS0_",
            "__ZN20GameSettings_Options9f_USE_VBOEv",
            "__ZN4Long10shortValueEv",
            "__ZN21LightweightDispatcher19f_targetLastEnteredEv",
            "__ZN14EntityCreature22getMaximumHomeDistanceEv",
            "__ZN6Window20removeFromWindowListEv",
            "__ZN16SocketPermission10readObjectE17ObjectInputStream",
            "__ZN5Score16f_field_178818_gEv",
            "__ZN15SecurityManager13f_initializedEv",
            "__ZN12BiomeGenBase17f_field_180279_adEv",
            "__ZN10ColorSpace11f_TYPE_DCLREv",
            "__ZN18ScopedMemoryAccess27getAndBitwiseOrCharInternalE24ScopedMemoryAccess_Scope6Objectlc",
            "__ZN5Frame5mergeE11SymbolTableS_i",
            "__ZN15MinecraftServer11startServerEv",
            "__ZN5Month9maxLengthEv",
            "__ZN5oatpp5async17AbstractCoroutine10waitRepeatERKNSt3__16chrono8durationIxNS2_5ratioILl1ELl1000000EEEEE",
            "__ZN11LineMetrics11getNumCharsEv",
            "__ZN30S38PacketPlayerListItem_Action15f_REMOVE_PLAYEREv",
            "__ZN12StringBuffer7indexOfE6Stringi",
            "__ZN17Rectangle2D_Float18f_serialVersionUIDEv",
            "__ZN10JsonReader17f_PEEKED_UNQUOTEDEv",
            "__ZN9WorldType16getTranslateNameEv",
            "__ZN5oatpp11concurrency8SpinLock8try_lockEv",
            "__ZN12EntityPlayer24f_theInventoryEnderChestEv",
            "__ZN7Toolkit22getMaximumCursorColorsEv",
            "__ZN9Minecraft19setIngameNotInFocusEv",
            "__ZN6Font2D24getPlatformNativeFontPtrEv",
            "__ZN8StatBase18f_distanceStatTypeEv",
            "__ZN12RenderPlayer12getMainModelEv",
            "__ZN9Component24pointRelativeToComponentE5Point",
            "__ZN24PageAttributes_MediaType7f_ITALYEv",
            "__ZN20S0EPacketSpawnObject16f_field_149020_kEv",
            "__ZN9Minecraft17f_skipRenderWorldEv",
            "__ZN11ClassWriter19f_nestMemberClassesEv",
            "__ZN14EntityPlayerSP23displayVillagerTradeGuiE9IMerchant",
            "__ZN11LongHashMap6removeEl",
            "__ZN10NBTTagList5writeE10DataOutput",
            "__ZN17ConcurrentHashMap15reduceKeysToIntEl13ToIntFunctioni17IntBinaryOperator",
            "__ZN5World12isAreaLoadedE8BlockPosS0_b",
            "__ZN12MethodHandle13f_asTypeCacheEv",
            "__ZN11ClassWriter30f_lastRuntimeVisibleAnnotationEv",
            "__ZN18OutputStreamWriter5closeEv",
            "__ZN11WorldServer15canSpawnAnimalsEv",
            "__ZN29PixelToParallelogramConverter12f_minPenSizeEv",
            "__ZN7Pattern15newCharPropertyE21Pattern_CharPredicate",
            "__ZN12RenderGlobal8f_skyVBOEv",
            "__ZN11Enchantment6f_nameEv",
            "__ZN12MethodHandle10asSpreaderE5Classi",
            "__ZN14DatagramSocket12getLocalPortEv",
            "__ZN6Socket10postAcceptEv",
            "__ZN13URLConnection25getDefaultRequestPropertyE6String",
            "__ZN8Calendar4rollEib",
            "__ZN8Provider6keySetEv",
            "__ZN15DragSourceEvent3f_xEv",
            "__ZN23S25PacketBlockBreakAnim10f_positionEv",
            "__ZN7Instant3nowEv",
            "__ZN11SurfaceData13isSurfaceLostEv",
            "__ZN9GuiIngame16setRecordPlayingE14IChatComponentb",
            "__ZN15InventoryPlayer19removeStackFromSlotEi",
            "__ZN9Minecraft12f_mojangLogoEv",
            "__ZN10SocketImpl11f_localportEv",
            "__ZN15AffineTransform20f_TYPE_GENERAL_SCALEEv",
            "__ZN4Font15f_TRUETYPE_FONTEv",
            "__ZN4Menu11getItemImplEi",
            "__ZN13SpectatorMenu13func_178641_dEv",
            "__ZN9LocalDate10readObjectE17ObjectInputStream",
            "__ZN14FileDescriptor7initIDsEv",
            "__ZN14OffsetDateTime5parseE12CharSequence17DateTimeFormatter",
            "__ZN6Thread17f_threadSeqNumberEv",
            "__ZN24PageAttributes_MediaType17f_NA_6X9_ENVELOPEEv",
            "__ZN7Matcher3endEi",
            "__ZN16JsonBlendingMode16f_field_148114_dEv",
            "__ZN20S23PacketBlockChange15writePacketDataE12PacketBuffer",
            "__ZN15MinecraftServer26addServerInfoToCrashReportE11CrashReport",
            "__ZN22S05PacketSpawnPosition11getSpawnPosEv",
            "__ZN13BreakIterator15getWordInstanceE6Locale",
            "__ZN6Buffer5arrayEv",
            "__ZN22C07PacketPlayerDigging8f_facingEv",
            "__ZN6Period8hashCodeEv",
            "__ZN8Provider21removePropertyStringsE16Provider_Service",
            "__ZN9Component13disableEventsEl",
            "__ZN17S0FPacketSpawnMob9f_watcherEv",
            "__ZN18ScopedMemoryAccess21getAndSetFloatAcquireE24ScopedMemoryAccess_Scope6Objectlf",
            "__ZN13SunGraphics2D12f_paintStateEv",
            "__ZN14NetworkManager22f_CLIENT_NIO_EVENTLOOPEv",
            "__ZN18ObjectOutputStream9writeByteEi",
            "__ZN13EntityHanging14getWidthPixelsEv",
            "__ZN17StackTraceElement18getClassLoaderNameEv",
            "__ZN11InetAddress10isMCGlobalEv",
            "__ZN34ItemCameraTransforms_TransformType5f_GUIEv",
            "__ZN10MethodType7genericEv",
            "__ZN20NetHandlerPlayClient24handleConfirmTransactionE27S32PacketConfirmTransaction",
            "__ZN5oatpp6parser5Caret19getDataMemoryHandleEv",
            "__ZN8Vector3f3setEff",
            "__ZN10TimerQueue3runEv",
            "__ZN12EntityPlayer18getArmorVisibilityEv",
            "__ZN10GuiNewChat12f_isScrolledEv",
            "__ZN6BitSet10checkRangeEii",
            "__ZThn8_NK5oatpp6parser4json7mapping12ObjectMapper5writeEPNS_4data6stream22ConsistentOutputStreamERKNS4_7mapping4type4VoidE",
            "__ZN8Matrix4f7store3fE11FloatBuffer",
            "__ZN12PotionEffect15setSplashPotionEb",
            "__ZN12CreativeTabs11getTabIndexEv",
            "__ZN7TreeSet5firstEv",
            "__ZN11ChronoField13f_YEAR_OF_ERAEv",
            "__ZN5Block15canPlaceBlockAtE5World8BlockPos",
            "__ZN21ChunkProviderSettings15f_ironMinHeightEv",
            "__ZN13PriorityQueue4pollEv",
            "__ZN10JsonObject8deepCopyEv",
            "__ZN17MutableBigInteger16euclidModInverseEi",
            "__ZN7Pattern4peekEv",
            "__ZN8Provider9addEngineE6StringbS0_",
            "__ZN6Region5f_hixEv",
            "__ZN13CommandObject17f_SET_ATTENUATIONEv",
            "__ZN12PacketBuffer11readBooleanEv",
            "__ZN10TileEntity6getPosEv",
            "__ZN17ConcurrentHashMap9f_TREEBINEv",
            "__ZN15IdentityHashMap10f_modCountEv",
            "__ZN11EntityHorse17setEatingHaystackEb",
            "__ZN17ConcurrentHashMap22f_MIN_TREEIFY_CAPACITYEv",
            "__ZN7HashSet8iteratorEv",
            "__ZN24S2BPacketChangeGameState14readPacketDataE12PacketBuffer",
            "__ZN9LocalDate5rangeE13TemporalField",
            "__ZN17HttpURLConnection17getHeaderFieldKeyEi",
            "__ZN17FilterInputStream4readE5arr_B",
            "__ZN10LambdaForm9parameterEi",
            "__ZN9GuiScreen8onResizeE9Minecraftii",
            "__ZN4Slot12canBeHoveredEv",
            "__ZN10BigInteger6signumEv",
            "__ZN12CalendarDate12getTimeOfDayEv",
            "__ZN6Entity14getEntityWorldEv",
            "__ZN10BigInteger32f_MONTGOMERY_INTRINSIC_THRESHOLDEv",
            "__ZN9Minecraft16addScheduledTaskE8Runnable",
            "__ZN15AffineTransform5f_m00Ev",
            "__ZN19PropertyChangeEvent8toStringEv",
            "__ZN30ConcurrentHashMap_EntrySetView8iteratorEv",
            "__ZN5World11getEntitiesE5Class9Predicate",
            "__ZN15InventoryPlayer20consumeInventoryItemE4Item",
            "__ZN9TimerTask8f_VIRGINEv",
            "__ZN26LambdaFormEditor_Transform6equalsE29LambdaFormEditor_TransformKey",
            "__ZN6Locale9f_CHINESEEv",
            "__ZN42AbstractQueuedSynchronizer_ConditionObject12canReacquireE40AbstractQueuedSynchronizer_ConditionNode",
            "__ZN19ChunkProviderClient10makeStringEv",
            "__ZN22C17PacketCustomPayload6f_dataEv",
            "__ZN28ClassSpecializer_SpeciesData10fieldCountEv",
            "__ZN6Unsafe18compareAndSetShortE6Objectlss",
            "__ZN40SunDropTargetContextPeer_EventDispatcher18dispatchEnterEventE18SunDropTargetEvent",
            "__ZN5oatpp3web6server3api8Endpoint4Info6Params3addERKNS_4data7mapping4type6StringEPNS8_4TypeE",
            "__ZN7Pattern28produceEquivalentAlternationE6String3Set",
            "__ZN8KeyEvent11f_KEY_TYPEDEv",
            "__ZN13LinkedTreeMap6removeE6Object",
            "__ZN12ImmutableSet7builderEv",
            "__ZN15MinecraftServer7getMOTDEv",
            "__ZN17GraphicsPrimitive13getNativePrimEv",
            "__ZN11DisplayMode17f_BIT_DEPTH_MULTIEv",
            "__ZN5Class9isRecord0Ev",
            "__ZN8Material6f_ironEv",
            "__ZN21ModelResourceLocation8toStringEv",
            "__ZN9ArrayList6f_sizeEv",
            "__ZN5World19canBlockFreezeWaterE8BlockPos",
            "__ZN7Context19f_currentMethodNameEv",
            "__ZN10Properties8elementsEv",
            "__ZN6Path2D14pointCrossingsEdd",
            "__ZN14ReferenceQueue6f_lockEv",
            "__ZN14EffectRenderer15renderParticlesE6Entityf",
            "__ZN9WorldInfo9getSpawnYEv",
            "__ZN4Date10f_fastTimeEv",
            "__ZN12MenuShortcut8hashCodeEv",
            "__ZN10BigDecimal3powEi",
            "__ZN13SunGraphics2D25f_TRANSFORM_INT_TRANSLATEEv",
            "__ZN10GuiNewChat11setChatLineE14IChatComponentiib",
            "__ZN12AbstractList3addE6Object",
            "__ZN13SunGraphics2D4drawE5Shape",
            "__ZN8TimeZone12setRawOffsetEi",
            "__ZN42AbstractQueuedSynchronizer_ConditionObject10awaitNanosEl",
            "__ZN11EntityHorse17isMovementBlockedEv",
            "__ZN6Entity21getDistanceSqToEntityES_",
            "__ZN12MethodHandle6bindToE6Object",
            "__ZN12EntityPlayer20preparePlayerToSpawnEv",
            "__ZN15InvocationEvent17f_catchExceptionsEv",
            "__ZN14StatisticsFile16f_field_150885_fEv",
            "__ZN9GuiScreen11handleInputEv",
            "__ZN10BigDecimal3powEi11MathContext",
            "__ZN6Window10getToolkitEv",
            "__ZN5Image15getCapabilitiesE21GraphicsConfiguration",
            "__ZN17StackTraceElement15f_moduleVersionEv",
            "__ZN11Constructor13toShortStringEv",
            "__ZN19WeightedRandom_Item12f_itemWeightEv",
            "__ZN18S21PacketChunkData8f_chunkZEv",
            "__ZN8EntityFX8onUpdateEv",
            "__ZN20MethodHandles_Lookup20getDirectConstructorE5Class10MemberName",
            "__ZN8Ordering12binarySearchE4List6Object",
            "__ZN17CodingErrorAction8f_IGNOREEv",
            "__ZN18ObjectOutputStream9putFieldsEv",
            "__ZN10LambdaForm8hashCodeEv",
            "__ZN12PacketBuffer5sliceEv",
            "__ZN11PrintStream6printfE6String16Object_interface",
            "__ZN13ZonedDateTime12minusSecondsEl",
            "__ZN12PotionEffect11getDurationEv",
            "__ZN15LinkedList_Node6f_nextEv",
            "__ZN11SoundSystem11quickStreamEb6Stringbfffif",
            "__ZN17FillParallelogram12f_primTypeIDEv",
            "__ZN21PropertyChangeSupport10readObjectE17ObjectInputStream",
            "__ZN14BiomeDecorator23f_chunkProviderSettingsEv",
            "__ZN17EventListenerList3addE5Class13EventListener",
            "__ZN14EntityFishHook6f_JUNKEv",
            "__ZN21AbstractStringBuilder7f_coderEv",
            "__ZN5oatpp7network3Url6Parser16parseQueryParamsERNS_6parser5CaretE",
            "__ZN12ServerSocket16supportedOptionsEv",
            "__ZN8KeyEvent9f_VK_KANAEv",
            "__ZN7Library16reverseByteOrderEv",
            "__ZN8KeyEvent26f_VK_DEAD_SEMIVOICED_SOUNDEv",
            "__ZN8Vector2f9translateEff",
            "__ZN6Window11disposeImplEv",
            "__ZN6Path2D6appendEdd",
            "__ZN4Date15getCalendarDateEv",
            "__ZN9WorldInfo9isRainingEv",
            "__ZN16InputMethodEvent19f_INPUT_METHOD_LASTEv",
            "__ZN12BaseCalendar9normalizeE12CalendarDate",
            "__ZN7Package21getDeclaredAnnotationE5Class",
            "__ZN11Enchantment11getMaxLevelEv",
            "__ZN14EnumDifficulty24getDifficultyResourceKeyEv",
            "__ZN18ScopedMemoryAccess21getLongOpaqueInternalE24ScopedMemoryAccess_Scope6Objectl",
            "__ZN11SurfaceData15restoreContentsE5Image",
            "__ZN11Tessellator15f_worldRendererEv",
            "__ZN9Rectangle8containsES_",
            "__ZN9WorldType11f_AMPLIFIEDEv",
            "__ZN23S09PacketHeldItemChange13processPacketE21INetHandlerPlayClient",
            "__ZN10HoverEvent9getActionEv",
            "__ZN14NetworkManager22processReceivedPacketsEv",
            "__ZN15MinecraftServer17getCommandManagerEv",
            "__ZN18TextureAtlasSprite21f_locationNameCompassEv",
            "__ZN31AbstractQueuedSynchronizer_Node14setPrevRelaxedES_",
            "__ZN6Unsafe30compareAndExchangeFloatReleaseE6Objectlff",
            "__ZN14GuiAchievement17clearAchievementsEv",
            "__ZN3URI18f_serialVersionUIDEv",
            "__ZN21S26PacketMapChunkBulk13processPacketE21INetHandlerPlayClient",
            "__ZN7Pattern4exprE12Pattern_Node",
            "__ZN20S42PacketCombatEvent14readPacketDataE12PacketBuffer",
            "__ZN8Splitter5splitE12CharSequence",
            "__ZNK5oatpp3web6server3api13ApiController26handleDefaultAuthorizationERKNS_4data7mapping4type6StringE",
            "__ZN12InputContext27getInputMethodControlObjectEv",
            "__ZN6Module7canReadES_",
            "__ZN18ForwardingMultimap7isEmptyEv",
            "__ZN13RenderManager15setRenderShadowEb",
            "__ZN9Hashtable14writeHashtableE18ObjectOutputStream",
            "__ZN18CommandResultStats13func_179671_aES_",
            "__ZN6Unsafe10getBooleanE6Objectl",
            "__ZN17NetworkPlayerInfo13f_gameProfileEv",
            "__ZN13SunGraphics2D7f_loopsEv",
            "__ZN6IsoEra2ofEi",
            "__ZN6Buffer8hasArrayEv",
            "__ZN10EventQueue19createSecondaryLoopE11Conditional11EventFilterl",
            "__ZN7Village28removeDeadAndOutOfRangeDoorsEv",
            "__ZN18ScopedMemoryAccess12loadInternalE24ScopedMemoryAccess_Scopelbl",
            "__ZN8Graphics8getColorEv",
            "__ZN10EventQueue6wakeupEb",
            "__ZN13SocketChannel8validOpsEv",
            "__ZN13SunGraphics2D18intersectRectShapeE11Rectangle2D5Shapebb",
            "__ZN8Calendar17isFullyNormalizedEv",
            "__ZN8Ordering3minE8Iterable",
            "__ZN11ShortBuffer8putArrayEi5arr_Sii",
            "__ZN10LambdaForm16isGuardWithCatchEi",
            "__ZN11PrintStream5writeE5arr_C",
            "__ZN18ScopedMemoryAccess22getIntVolatileInternalE24ScopedMemoryAccess_Scope6Objectl",
            "__ZN18ScopedMemoryAccess23putLongVolatileInternalE24ScopedMemoryAccess_Scope6Objectll",
            "__ZN12PathNavigate12f_totalTicksEv",
            "__ZN6BitSet4flipEi",
            "__ZN16ConstantPool_Tag8f_STRINGEv",
            "__ZN6Period6createEiii",
            "__ZN9GuiIngame15f_recordPlayingEv",
            "__ZN7ByteBuf18readUnsignedMediumEv",
            "__ZN9Minecraft12isFullScreenEv",
            "__ZN12Session_Type14setSessionTypeE6String",
            "__ZN18ScopedMemoryAccess21getCharOpaqueInternalE24ScopedMemoryAccess_Scope6Objectl",
            "__ZN3URI6f_hashEv",
            "__ZN16SocketPermission5matchE6StringS0_",
            "__ZN12DecimalStyle10f_STANDARDEv",
            "__ZN16EntityLivingBase19f_isSwingInProgressEv",
            "__ZN14NBTTagIntArray6equalsE6Object",
            "__ZN22RecordComponentVisitor15visitAnnotationE6Stringb",
            "__ZN21LocaleServiceProvider17isSupportedLocaleE6Locale",
            "__ZN10FocusEvent11isTemporaryEv",
            "__ZN9Hashtable17reconstitutionPutE25Hashtable_Entry_interface6ObjectS1_",
            "__ZN20S0CPacketSpawnPlayer15writePacketDataE12PacketBuffer",
            "__ZN8MenuItem13disableEventsEl",
            "__ZN5oatpp4base11Environment17registerComponentERKNSt3__112basic_stringIcNS2_11char_traitsIcEENS2_9allocatorIcEEEESA_Pv",
            "__ZN4Gson11f_factoriesEv",
            "__ZN12ServerSocket9getOptionE12SocketOption",
            "__ZN15MinecraftServer15isServerRunningEv",
            "__ZN15AbstractTexture19setBlurMipmapDirectEbb",
            "__ZN17DateFormatSymbols11getInstanceEv",
            "__ZN24S39PacketPlayerAbilities11setFlySpeedEf",
            "__ZN9ItemStack11f_itemFrameEv",
            "__ZN4Enum8hashCodeEv",
            "__ZN13DecimalFormat17resetFastPathDataEb",
            "__ZN6Format18f_serialVersionUIDEv",
            "__ZN16ClassValue_Entry5valueEv",
            "__ZN8Material9f_barrierEv",
            "__ZN10CodeSource11writeObjectE18ObjectOutputStream",
            "__ZN9Minecraft17f_launchedVersionEv",
            "__ZN19TimeZoneNamesBundle15handleGetObjectE6String",
            "__ZN5oatpp6parser5Caret14StateSaveGuardD2Ev",
            "__ZN16LambdaFormEditor22f_MIN_CACHE_ARRAY_SIZEEv",
            "__ZN6Unsafe7makeIntEss",
            "__ZN4Long6decodeE6String",
            "__ZN17MutableBigInteger5isOddEv",
            "__ZN6Unsafe12getIntOpaqueE6Objectl",
            "__ZN8Calendar17f_DST_OFFSET_MASKEv",
            "__ZN19ChunkProviderClient19getLoadedChunkCountEv",
            "__ZN9ItemStack11isItemEqualES_",
            "__ZN10CharBuffer16asReadOnlyBufferEv",
            "__ZN10DataBuffer11getDataTypeEv",
            "__ZN13DecimalFormat17setPositivePrefixE6String",
            "__ZN16EntityLivingBase26f_newPosRotationIncrementsEv",
            "__ZN10BigDecimal9remainderES_",
            "__ZN8KeyEvent10f_VK_SHIFTEv",
            "__ZN9ArrayList14outOfBoundsMsgEii",
            "__ZN9Minecraft13func_181536_aEiiiiiiiiii",
            "__ZN21RecordComponentWriter8visitEndEv",
            "__ZNK5oatpp3web8protocol4http8incoming17SimpleBodyDecoder23handleExpectHeaderAsyncERKNS_4data5share21LazyStringMapTemplateINS6_16StringKeyLabelCIENSt3__118unordered_multimapIS8_NS6_14StringKeyLabelENS9_4hashIS8_EENS9_8equal_toIS8_EENS9_9allocatorINS9_4pairIKS8_SB_EEEEEEEERKNS9_10shared_ptrINS5_6stream8IOStreamEEE",
            "__ZN12BiomeGenBase18f_temperatureNoiseEv",
            "__ZN17Rectangle2D_Float7outcodeEdd",
            "__ZN7Charset11displayNameEv",
            "__ZN10OffsetTime5minusEl12TemporalUnit",
            "__ZN11MidiChannel4playEv",
            "__ZN6Unsafe15getLoadAverage0E5arr_Di",
            "__ZN17ObjectInputStream12readUnsharedEv",
            "__ZN6Period4fromE14TemporalAmount",
            "__ZN18EnumChatFormatting11f_DARK_AQUAEv",
            "__ZN13BufferedImage21f_TYPE_4BYTE_ABGR_PREEv",
            "__ZN12MethodWriter12f_descriptorEv",
            "__ZN8Ordering17isStrictlyOrderedE8Iterable",
            "__ZN13BufferedImage20isAlphaPremultipliedEv",
            "__ZN6Path2D8containsE12PathIteratordddd",
            "__ZN6Region15getScaledRegionEdd",
            "__ZN11WorldBorder13f_endDiameterEv",
            "__ZN10CodeSource8toStringEv",
            "__ZN9GuiScreen18getClipboardStringEv",
            "__ZN6Path2D10f_numTypesEv",
            "__ZN13SpectatorMenu16f_field_178654_eEv",
            "__ZN15ConstantDynamic8toStringEv",
            "__ZN12ValidatePipe13fillRoundRectE13SunGraphics2Diiiiii",
            "__ZN24PageAttributes_MediaType13f_I_EXECUTIVEEv",
            "__ZN10MethodType18f_methodDescriptorEv",
            "__ZN5World12getGameRulesEv",
            "__ZN23ThreadDownloadImageData21loadTextureFromServerEv",
            "__ZN6Module19loadModuleInfoClassEv",
            "__ZN11SoundSystem19CommandSetTemporaryE6Stringb",
            "__ZN11WorldServer23getRenderDistanceChunksEv",
            "__ZN9ArrayList8containsE6Object",
            "__ZN10EventQueue32setCurrentEventAndMostRecentTimeE8AWTEvent",
            "__ZN17GraphicsPrimitive10simplenameE13CompositeType",
            "__ZN11Rectangle2D3addEdd",
            "__ZN8KeyEvent8f_VK_F14Ev",
            "__ZN6Unsafe23f_ARRAY_INT_BASE_OFFSETEv",
            "__ZN18PlayerUsageSnooper25f_minecraftStartTimeMilisEv",
            "__ZN13BreakIterator15getWordInstanceEv",
            "__ZN11FloatBuffer19f_ARRAY_BASE_OFFSETEv",
            "__ZN10BaseLocale9f_ENGLISHEv",
            "__ZN14CalendarSystem8validateE12CalendarDate",
            "__ZN5World13makeFireworksEdddddd14NBTTagCompound",
            "__ZN31S47PacketPlayerListHeaderFooter8f_headerEv",
            "__ZN19GuiPlayerTabOverlay16renderPlayerlistEi10Scoreboard14ScoreObjective",
            "__ZN15MinecraftServer23worldServerForDimensionEi",
            "__ZN8Duration6createE10BigDecimal",
            "__ZN13WorldSettings19f_bonusChestEnabledEv",
            "__ZN9LocalDate18f_serialVersionUIDEv",
            "__ZN10TileEntity16f_nameToClassMapEv",
            "__ZN9Character10isMirroredEc",
            "__ZN11InetAddress16checkNumericZoneE6String",
            "__ZN15AffineTransform23f_TYPE_GENERAL_ROTATIONEv",
            "__ZN19ChunkProviderServer13func_177460_aE14IChunkProvider5Chunkii",
            "__ZN15File_PathStatus7valueOfE6String",
            "__ZN16LambdaFormEditor22noteLoopLocalTypesFormEi30LambdaForm_BasicType_interface",
            "__ZN9LocalDate8plusDaysEl",
            "__ZN13CompositeType12f_DESC_CLEAREv",
            "__ZN4Date3UTCEiiiiii",
            "__ZN9DigitList13getBigDecimalEv",
            "__ZN10CharBuffer3putEiS_ii",
            "__ZN10MemberName20isObjectPublicMethodEv",
            "__ZN3URI15getRawAuthorityEv",
            "__ZN6String7valueOfE5arr_C",
            "__ZN10EventQueue12f_appContextEv",
            "__ZN8Calendar13f_MINUTE_MASKEv",
            "__ZN13BufferedImage18f_TYPE_BYTE_BINARYEv",
            "__ZN9Component21createHierarchyEventsEiS_9Containerlb",
            "__ZN6Method7getNameEv",
            "__ZN14ResourceBundle11containsKeyE6String",
            "__ZN21PropertyChangeSupport18firePropertyChangeE6Stringbb",
            "__ZN5oatpp6parser4json7mapping12Deserializer17deserializeObjectEPS3_RNS0_5CaretEPKNS_4data7mapping4type4TypeE",
            "__ZN9Component26paintHeavyweightComponentsE8Graphics",
            "__ZN17GraphicsPrimitive14tracingEnabledEv",
            "__ZN4Font7isPlainEv",
            "__ZN4Font11getFontNameEv",
            "__ZN14FontStrikeDesc7f_styleEv",
            "__ZN17ConcurrentHashMap6removeE6ObjectS0_",
            "__ZN14OffsetDateTime11plusSecondsEl",
            "__ZN20DecimalFormatSymbols6getNaNEv",
            "__ZN20DecimalFormatSymbols13f_perMillTextEv",
            "__ZN13JsonPrimitive11getAsStringEv",
            "__ZN18ObjectOutputStream15writeRecordDataE6Object17ObjectStreamClass",
            "__ZN14FontStrikeDesc7f_AA_ONEv",
            "__ZN9TimerTask6cancelEv",
            "__ZN9IntBuffer3getE5arr_Iii",
            "__ZN10AtomicLong10getAcquireEv",
            "__ZN8Matrix4f11setIdentityEv",
            "__ZN13SocketChannel6socketEv",
            "__ZN5Timer5purgeEv",
            "__ZN14PageAttributes24setPrintQualityToDefaultEv",
            "__ZN12CreativeTabs21drawInForegroundOfTabEv",
            "__ZN4Font9getFamilyE6Locale",
            "__ZN14AnnotationType16f_memberDefaultsEv",
            "__ZN14RenderingHints23f_KEY_TEXT_ANTIALIASINGEv",
            "__ZN14DatagramSocket11isConnectedEv",
            "__ZN6Thread4joinEli",
            "__ZN18MemorySegmentProxy15multiplyOffsetsEllS_",
            "__ZN13WorldProvider14getCloudHeightEv",
            "__ZN7ByteBuf8setFloatEif",
            "__ZN9Character8isLetterEc",
            "__ZN10Permission18f_serialVersionUIDEv",
            "__ZN13StreamEncoder15implFlushBufferEv",
            "__ZN19NumericShaper_Range5f_NKOEv",
            "__ZN11SymbolTable13addMergedTypeEii",
            "__ZN16Provider_Service12getClassNameEv",
            "__ZN12MethodWriter23visitMultiANewArrayInsnE6Stringi",
            "__ZN21PropertyChangeSupport25fireIndexedPropertyChangeE6Stringibb",
            "__ZN17ObjectStreamField10f_unsharedEv",
            "__ZN23S18PacketEntityTeleport4getYEv",
            "__ZN10ByteVector8putShortEi",
            "__ZN10Scoreboard21removePlayerFromTeamsE6String",
            "__ZN23S09PacketHeldItemChange15writePacketDataE12PacketBuffer",
            "__ZN8KeyEvent6f_VK_9Ev",
            "__ZN14CharsetDecoder7charsetEv",
            "__ZN10EAttribute10f_EPOSTUREEv",
            "__ZN5Chunk12relightBlockEiii",
            "__ZN17EnumParticleTypes10f_REDSTONEEv",
            "__ZN16EntityLivingBase12getMaxHealthEv",
            "__ZN6Entity23getCollisionBoundingBoxEv",
            "__ZN9Character38f_DIRECTIONALITY_RIGHT_TO_LEFT_ISOLATEEv",
            "__ZN9TypeToken16isAssignableFromE5Class",
            "__ZN6Window20removeFromWindowListE10AppContext13WeakReference",
            "__ZN12PacketBuffer9readShortEv",
            "__ZN6Region9clipRoundEd",
            "__ZN5oatpp6parser4json7mapping12Deserializer9guessTypeERNS0_5CaretE",
            "__ZN9Rotations3f_yEv",
            "__ZN9Minecraft18getLanguageManagerEv",
            "__ZN12ConstantPool25getNameAndTypeRefIndexAt0E6Objecti",
            "__ZN9Rectangle3addEii",
            "__ZN11ModuleLayer4f_cfEv",
            "__ZN17MutableBigInteger14compareShiftedES_i",
            "__ZN17S0FPacketSpawnMob4getXEv",
            "__ZN9DigitList14f_roundingModeEv",
            "__ZN11AAShapePipe17drawParallelogramE13SunGraphics2Ddddddddddddd",
            "__ZN6Module12implAddReadsES_b",
            "__ZN18PlayerControllerMP11windowClickEiiii12EntityPlayer",
            "__ZN9Hashtable7replaceE6ObjectS0_",
            "__ZN11EntityHorse17f_field_110294_bIEv",
            "__ZN15EnumFacing_Axis7valueOfE6String",
            "__ZN12MethodWriter28visitAnnotableParameterCountEib",
            "__ZN9Character17f_SPACE_SEPARATOREv",
            "__ZN16SocketPermission13f_defaultDenyEv",
            "__ZN11UserListOps11createEntryE10JsonObject",
            "__ZN12EntityLiving8onUpdateEv",
            "__ZN15LambdaForm_Kind6f_ZEROEv",
            "__ZN8LoopPipe4fillE13SunGraphics2D5Shape",
            "__ZN13CompositeType8hashCodeEv",
            "__ZN8TimeUnit3cvtElll",
            "__ZN11ClassReader17readUnsignedShortEi",
            "__ZN10Graphics2D10drawStringE6Stringii",
            "__ZN20MethodHandles_Lookup8f_MODULEEv",
            "__ZN10CharBuffer6appendE12CharSequenceii",
            "__ZN17ConcurrentHashMap11f_HASH_BITSEv",
            "__ZN5World10getHorizonEv",
            "__ZN17EnumParticleTypes11f_SUSPENDEDEv",
            "__ZN14GuiAchievement28updateAchievementWindowScaleEv",
            "__ZN9Minecraft19f_joinPlayerCounterEv",
            "__ZN9Character15codePointAtImplE5arr_Cii",
            "__ZN24S39PacketPlayerAbilities13processPacketE21INetHandlerPlayClient",
            "__ZN11PrintStream5writeE6String",
            "__ZN8KeyEvent30f_VK_INVERTED_EXCLAMATION_MARKEv",
            "__ZN12MethodWriter9f_computeEv",
            "__ZN13WorldProvider23getProviderForDimensionEi",
            "__ZN6Window6f_baseEv",
            "__ZN17SymbolTable_Entry10f_hashCodeEv",
            "__ZN10FileSystem10isAbsoluteE4File",
            "__ZN24AnimationMetadataSection11f_frameTimeEv",
            "__ZN9GuiScreen16f_allowUserInputEv",
            "__ZN23ResourceBundle_CacheKey12getProvidersEv",
            "__ZN13JobAttributes10getMaxPageEv",
            "__ZN6Window7initIDsEv",
            "__ZN10Properties13propertyNamesEv",
            "__ZN11CharMatcher5isNotEc",
            "__ZN13LocalDateTime10withSecondEi",
            "__ZN7Library15setListenerDataE12ListenerData",
            "__ZN17S01PacketJoinGame12f_maxPlayersEv",
            "__ZN13SunGraphics2D12f_CLIP_SHAPEEv",
            "__ZN14ComponentEvent12getComponentEv",
            "__ZN18ScopedMemoryAccess23getShortAcquireInternalE24ScopedMemoryAccess_Scope6Objectl",
            "__ZN12PathNavigate7setPathE10PathEntityd",
            "__ZN15InventoryPlayer14getStackInSlotEi",
            "__ZN16Team_EnumVisible16f_field_178830_eEv",
            "__ZN13MessageHeader3addE6StringS0_",
            "__ZN21ChunkProviderSettings15f_goldMaxHeightEv",
            "__ZN5oatpp4data6stream25OutputStreamBufferedProxy10flushAsyncEv",
            "__ZN17ConcurrentHashMap4sizeEv",
            "__ZN7Integer8parseIntE12CharSequenceiii",
            "__ZN18ForwardingMultimap13replaceValuesE6Object8Iterable",
            "__ZN24PublicMethods_MethodList5mergeES_6Method",
            "__ZN13BufferedImage14createGraphicsEv",
            "__ZN13ReentrantLock18getWaitQueueLengthE9Condition",
            "__ZN9LocalTime9getSecondEv",
            "__ZN10BlockState7f_blockEv",
            "__ZN14InventoryBasic24setInventorySlotContentsEi9ItemStack",
            "__ZN17DragSourceContext8f_cursorEv",
            "__ZN5Block12onBlockAddedE5World8BlockPos11IBlockState",
            "__ZN20MethodHandles_Lookup26getDirectConstructorCommonE5Class10MemberNameb",
            "__ZN17EnumParticleTypes16f_VILLAGER_ANGRYEv",
            "__ZN11ClassReader8readUTF8Ei5arr_C",
            "__ZN7Village14f_numVillagersEv",
            "__ZN6Unsafe13getCharOpaqueE6Objectl",
            "__ZN6Unsafe22dataCacheLineAlignDownEl",
            "__ZN5World13updateWeatherEv",
            "__ZN10BigDecimal8setScaleEi12RoundingMode",
            "__ZN10BigInteger16compareMagnitudeES_",
            "__ZN18TextureAtlasSprite10initSpriteEiiiib",
            "__ZN15ScorePlayerTeam12formatStringE6String",
            "__ZN9LocalTime12minusSecondsEl",
            "__ZN11ActionEvent11f_CTRL_MASKEv",
            "__ZN6Window19applyResourceBundleE14ResourceBundle",
            "__ZN3URI6decodeE6Stringb",
            "__ZN4Font12f_TYPE1_FONTEv",
            "__ZN15SecurityManager15checkPermissionE10Permission6Object",
            "__ZN17CharToGlyphMapper11charToGlyphEi",
            "__ZN6Path2D8containsE12PathIterator11Rectangle2D",
            "__ZN8Splitter11splitToListE12CharSequence",
            "__ZN9Minecraft4testEv",
            "__ZN26S2CPacketSpawnGlobalEntity3f_yEv",
            "__ZN12StreamThread5watchE6Source",
            "__ZN13TextAttribute11readResolveEv",
            "__ZN5World13isChunkLoadedEiib",
            "__ZN4Gson18getDelegateAdapterE18TypeAdapterFactory9TypeToken",
            "__ZN26LocaleProviderAdapter_Type11f_CLASSNAMEEv",
            "__ZN22ConstructorConstructor8toStringEv",
            "__ZN12MethodWriter16f_signatureIndexEv",
            "__ZN16LambdaFormEditor23f_FILTER_RETURN_TO_ZEROEv",
            "__ZN10LambdaForm6isLoopEi",
            "__ZN19ChunkProviderServer9dropChunkEii",
            "__ZN26AbstractQueuedSynchronizer21hasQueuedPredecessorsEv",
            "__ZN6Entity6equalsE6Object",
            "__ZN10DropTarget23initializeAutoscrollingE5Point",
            "__ZN5Color6f_pinkEv",
            "__ZN7Charset10newDecoderEv",
            "__ZN13LocalDateTime10compareTo0ES_",
            "__ZN20NetHandlerPlayServer13processPlayerE15C03PacketPlayer",
            "__ZN6Entity6f_posXEv",
            "__ZN11PerfCounter14getFindClassesEv",
            "__ZN9Character25f_FINAL_QUOTE_PUNCTUATIONEv",
            "__ZN11SampleModel11getNumBandsEv",
            "__ZN10BigDecimal14byteValueExactEv",
            "__ZN5oatpp4data6streamlsERNS1_22ConsistentOutputStreamERKNS0_7mapping4type9PrimitiveIhNS5_7__class5UInt8EEE",
            "__ZN10RenderItem10renderQuadE13WorldRenderer9BakedQuadi",
            "__ZN12EntityPlayer12getItemInUseEv",
            "__ZN8KeyEvent6f_VK_1Ev",
            "__ZN10KeyBinding10getKeyCodeEv",
            "__ZN17CharToGlyphMapper11f_VSS_STARTEv",
            "__ZN11SurfaceData17f_AAColorViaPgramEv",
            "__ZN15S14PacketEntity10f_entityIdEv",
            "__ZN8Duration11toHoursPartEv",
            "__ZN12ListenerData7setDataEffffffffff",
            "__ZN14OffsetDateTime5untilE8Temporal12TemporalUnit",
            "__ZN14WorldSavedData10writeToNBTE14NBTTagCompound",
            "__ZN5oatpp6parser4json5Utils21calcEscapedStringSizeEPKclRlj",
            "__ZN11ClassReader8f_headerEv",
            "__ZN6Entity14f_addedToChunkEv",
            "__ZN6Entity16f_cmdResultStatsEv",
            "__ZN7Pattern7closureE12Pattern_Node",
            "__ZN12EntityPlayer17getPortalCooldownEv",
            "__ZN8Currency37f_SIMPLE_CASE_COUNTRY_FINAL_CHAR_MASKEv",
            "__ZN9Container9slotClickEiii12EntityPlayer",
            "__ZN20S44PacketWorldBorder12f_targetSizeEv",
            "__ZN27SimpleChannelInboundHandler9f_matcherEv",
            "__ZN7Library14setMidiChannelE11MidiChannel",
            "__ZN13ReentrantLock8getOwnerEv",
            "__ZN50ObjectStreamClass_DeserializationConstructorsCache10f_MAX_SIZEEv",
            "__ZN15MinecraftServer18f_enableBonusChestEv",
            "__ZN16NetworkInterface14getDisplayNameEv",
            "__ZN24PageAttributes_MediaType3f_AEv",
            "__ZN14ResourceBundle11f_cacheListEv",
            "__ZN15AttributeValues17setNumericShapingE13NumericShaper",
            "__ZN12CalendarDate8setHoursEi",
            "__ZN10LongBuffer8isDirectEv",
            "__ZN12ImmutableSet8f_CUTOFFEv",
            "__ZN5oatpp7network3Url6Parser16parseQueryParamsERNS_4data5share21LazyStringMapTemplateINS4_14StringKeyLabelENSt3__118unordered_multimapIS6_S6_NS7_4hashIS6_EENS7_8equal_toIS6_EENS7_9allocatorINS7_4pairIKS6_S6_EEEEEEEERKNS3_7mapping4type6StringE",
            "__ZN12GameSettings19f_hideServerAddressEv",
            "__ZN10BigDecimal12isPowerOfTenEv",
            "__ZN11WorldBorder15f_startDiameterEv",
            "__ZN16EntityLivingBase17f_renderYawOffsetEv",
            "__ZN8Wildcard4makeE28FieldTypeSignature_interfaceS0_",
            "__ZN8MenuItem6enableEb",
            "__ZN18DirectMethodHandle15f_LONG_OBJ_TYPEEv",
            "__ZN14NetworkManager10sendPacketE6Packet21GenericFutureListener31GenericFutureListener_interface",
            "__ZN8Calendar7f_MONTHEv",
            "__ZN21S1DPacketEntityEffect13func_179707_fEv",
            "__ZN20NetHandlerPlayClient15f_playerInfoMapEv",
            "__ZN29LambdaFormEditor_TransformKey2ofEh5arr_I",
            "__ZN42AbstractQueuedSynchronizer_ConditionObject5awaitEv",
            "__ZN10BigInteger19lucasLehmerSequenceEiS_S_",
            "__ZN9Minecraft15f_mcMusicTickerEv",
            "__ZN15AffineTransform13f_HI_IDENTITYEv",
            "__ZN11ClassWriter14f_innerClassesEv",
            "__ZN7Integer22formatUnsignedIntUTF16Eii5arr_Bi",
            "__ZN16MethodRepository13getReturnTypeEv",
            "__ZN17Rectangle2D_Float3f_yEv",
            "__ZN22C07PacketPlayerDigging13processPacketE21INetHandlerPlayServer",
            "__ZN7Village14getExistedDoorE8BlockPos",
            "__ZN13StringBuilder6insertEi12CharSequence",
            "__ZN27ReentrantReadWriteLock_Sync22f_firstReaderHoldCountEv",
            "__ZN8ItemFood11onFoodEatenE9ItemStack5World12EntityPlayer",
            "__ZN6Unsafe7putCharElc",
            "__ZN10EventQueue15f_dummyRunnableEv",
            "__ZN14EffectRenderer16registerParticleEi16IParticleFactory",
            "__ZN17ChunkCoordIntPair9getXStartEv",
            "__ZN14CharsetEncoder25unmappableCharacterActionEv",
            "__ZN18BufferCapabilities11f_frontCapsEv",
            "__ZN5oatpp3web8protocol4http8incoming7Request25putOrReplaceHeader_UnsafeERKNS_4data5share16StringKeyLabelCIERKNS6_14StringKeyLabelE",
            "__ZN21BreakIteratorProvider15getWordInstanceE6Locale",
            "__ZN11GlyphVector16getLogicalBoundsEv",
            "__ZN6Method13getReturnTypeEv",
            "__ZN6Unsafe23f_ARRAY_INT_INDEX_SCALEEv",
            "__ZN17BoundMethodHandle10tooComplexEv",
            "__ZN17AnnotationVisitor4f_avEv",
            "__ZN5oatpp4data7mapping4type3AnyC2ERKNSt3__110shared_ptrINS2_9AnyHandleEEEPKNS2_4TypeE",
            "__ZN6String19compareToIgnoreCaseES_",
            "__ZN13SoundCategory7f_MUSICEv",
            "__ZN12NumberFormat14f_groupingUsedEv",
            "__ZN16SocketPermission8f_LISTENEv",
            "__ZN14EntityFireball16writeEntityToNBTE14NBTTagCompound",
            "__ZN6Locale14forLanguageTagE6String",
            "__ZN12PacketBuffer8toStringEii7Charset",
            "__ZN4UUID23getLeastSignificantBitsEv",
            "__ZN15FontLineMetrics21getUnderlineThicknessEv",
            "__ZN6Random8f_unsafeEv",
            "__ZN21MusicTicker_MusicType6f_MENUEv",
            "__ZN21AbstractStringBuilder11codePointAtEi",
            "__ZN22MidiChannel_FadeThread3runEv",
            "__ZN6Line2D15getPathIteratorE15AffineTransform",
            "__ZN14FileDescriptor9f_cleanupEv",
            "__ZN34ResourceBundle_KeyElementReference11getCacheKeyEv",
            "__ZN14RenderingHints6equalsE6Object",
            "__ZN12NumberFormat5parseE6String",
            "__ZN4Gson13newJsonWriterE6Writer",
            "__ZN34MethodType_ConcurrentWeakInternSet3addE6Object",
            "__ZN17ShapeSpanIterator10appendPathE12PathIterator",
            "__ZN5Class16descriptorStringEv",
            "__ZN32ConcurrentHashMap_CollectionView5f_mapEv",
            "__ZN21ChunkProviderSettings14f_useMonumentsEv",
            "__ZN10MouseEvent12getXOnScreenEv",
            "__ZN11SoundSystem20CommandSetDistOrRollE6Stringf",
            "__ZN21PixelToShapeConverter12drawPolylineE13SunGraphics2D5arr_IS1_i",
            "__ZN10BigInteger10modInverseES_",
            "__ZN10LinkedList3setEi6Object",
            "__ZN18AccessibleRelation20f_LABEL_FOR_PROPERTYEv",
            "__ZN11MusicTicker4f_mcEv",
            "__ZN13IsoChronology5eraOfEi",
            "__ZN27SoundEventAccessorComposite15f_soundLocationEv",
            "__ZN11PrintStream9f_troubleEv",
            "__ZN17DateFormatSymbols22f_PATTERN_WEEK_OF_YEAREv",
            "__ZThn16_N5oatpp3web6server21HttpConnectionHandler11onTaskStartERKNS_8provider14ResourceHandleINS_4data6stream8IOStreamEEE",
            "__ZN17HttpURLConnection18getFollowRedirectsEv",
            "__ZN7TreeSet8iteratorEv",
            "__ZN16NetworkInterface14isPointToPointEv",
            "__ZN8UserList12getObjectKeyE6Object",
            "__ZN10AppContext21getContextClassLoaderEv",
            "__ZN16ClassSpecializer11findSpeciesE6Object",
            "__ZN9Character23f_CONNECTOR_PUNCTUATIONEv",
            "__ZN11AbstractMap8toStringEv",
            "__ZN9Component16f_mouseListenerKEv",
            "__ZN14WritableRaster17getWritableParentEv",
            "__ZN24S49PacketUpdateEntityNBT14getTagCompoundEv",
            "__ZN13Authenticator6getKeyES_",
            "__ZN8MimeType12isValidTokenE6String",
            "__ZN23BlockRendererDispatcher14f_gameSettingsEv",
            "__ZN14EntityFishHook21isInRangeToRenderDistEd",
            "__ZN10LinkedList4pollEv",
            "__ZN13SpectatorMenu16f_field_178653_dEv",
            "__ZN16IntegratedServer18f_theWorldSettingsEv",
            "__ZN22GlyphJustificationInfo16f_shrinkPriorityEv",
            "__ZN6String7indexOfES_i",
            "__ZN24JobAttributes_DialogType6f_NONEEv",
            "__ZN13NumericShaper14f_ctCacheLimitEv",
            "__ZN11CharMatcher17f_JAVA_UPPER_CASEEv",
            "__ZN23BlockRendererDispatcher15f_fluidRendererEv",
            "__ZN16ModuleDescriptor9newModuleE6String",
            "__ZN15MinecraftServer14setServerOwnerE6String",
            "__ZN6Raster7getMinYEv",
            "__ZN5World19f_lastLightningBoltEv",
            "__ZN5oatpp11concurrency22getHardwareConcurrencyEv",
            "__ZN9Character11isSpaceCharEc",
            "__ZN13SunGraphics2D19getDeviceColorModelEv",
            "__ZN6Region6equalsE6Object",
            "__ZN11PointerInfo10f_locationEv",
            "__ZN12DecimalStyle12getZeroDigitEv",
            "__ZN14StackFrameInfo19toStackTraceElementEv",
            "__ZN10EnumFacing4f_UPEv",
            "__ZN20RendererLivingEntity13canRenderNameE16EntityLivingBase",
            "__ZN11Framebuffer22bindFramebufferTextureEv",
            "__ZN15AccessibleState8f_ACTIVEEv",
            "__ZN10InputEvent14getModifiersExEv",
            "__ZN27S32PacketConfirmTransaction13processPacketE21INetHandlerPlayClient",
            "__ZN10JsonReader8endArrayEv",
            "__ZN11InetAddress11getHostNameEv",
            "__ZN15WorldGenBigTree16f_field_175948_jEv",
            "__ZN8Currency14f_MAGIC_NUMBEREv",
            "__ZN9Component9f_visibleEv",
            "__ZN9ModelBase10f_isRidingEv",
            "__ZN20MethodHandles_Lookup20getDirectFieldCommonEh5Class10MemberNameb",
            "__ZN17EnumParticleTypes19f_SPELL_MOB_AMBIENTEv",
            "__ZN11ShortBuffer5clearEv",
            "__ZN11CombatEntry8f_damageEv",
            "__ZN14EntityPlayerMP20handleClientSettingsE23C15PacketClientSettings",
            "__ZN18S2APacketParticles15getParticleTypeEv",
            "__ZN24RegionRenderCacheBuilder23getWorldRendererByLayerE19EnumWorldBlockLayer",
            "__ZN16ModalEventFilter13f_modalDialogEv",
            "__ZN10ChronoUnit11f_CENTURIESEv",
            "__ZN12EntityLiving23updateEntityActionStateEv",
            "__ZN15LambdaForm_Kind19f_LINK_TO_CALL_SITEEv",
            "__ZN7TreeMap13getFirstEntryEv",
            "__ZN8BanEntry12getBanReasonEv",
            "__ZN17VillageCollection19fileNameForProviderE13WorldProvider",
            "__ZN5World13spawnParticleEibdddddd5arr_I",
            "__ZN4Menu3addE8MenuItem",
            "__ZN19IMetadataSerializer13f_gsonBuilderEv",
            "__ZNK5oatpp4data7mapping4type10BaseObject14getBasePointerEv",
            "__ZN11ClassLoader25registerAsParallelCapableEv",
            "__ZN10DataBuffer13f_TYPE_USHORTEv",
            "__ZN6Reader22f_TRANSFER_BUFFER_SIZEEv",
            "__ZN9Component16eventTypeEnabledEi",
            "__ZN10Proxy_Type8f_DIRECTEv",
            "__ZNK5oatpp3web8protocol4http8outgoing8Response9getBundleEv",
            "__ZN8Vector4f3f_zEv",
            "__ZN5World14rayTraceBlocksE4Vec3S0_",
            "__ZN6Cursor17f_N_RESIZE_CURSOREv",
            "__ZN17AttributeModifier9f_isSavedEv",
            "__ZN10DataFlavor6equalsES_",
            "__ZN11WeakHashMap10matchesKeyE17WeakHashMap_Entry6Object",
            "__ZN10TileEntity10invalidateEv",
            "__ZN14EntityRenderer20f_debugViewDirectionEv",
            "__ZN7Matcher5groupEi",
            "__ZN10FocusEvent11f_temporaryEv",
            "__ZN12GlyphMetrics7getTypeEv",
            "__ZN26ServerConfigurationManager16setPlayerManagerE21WorldServer_interface",
            "__ZN10MethodType13parameterTypeEi",
            "__ZN14AnnotationType27invocationHandlerReturnTypeE5Class",
            "__ZN6Thread10f_priorityEv",
            "__ZN13StreamEncoder26f_DEFAULT_BYTE_BUFFER_SIZEEv",
            "__ZN14MethodTypeForm8f_UNWRAPEv",
            "__ZN10DateFormat8hashCodeEv",
            "__ZN14EntityPlayerSP12openEditSignE14TileEntitySign",
            "__ZN39ReentrantReadWriteLock_Sync_HoldCounter7f_countEv",
            "__ZN5World13getBlockStateE8BlockPos",
            "__ZN18PlayerUsageSnooper19addJvmArgsToSnooperEv",
            "__ZN13CommandObject20f_CHECK_FADE_VOLUMESEv",
            "__ZN6Font2D10f_TTF_RANKEv",
            "__ZN16SocketPermission18f_serialVersionUIDEv",
            "__ZN7TreeMap7colorOfE13TreeMap_Entry",
            "__ZN15WorldGenBigTree13f_branchSlopeEv",
            "__ZN20UrlDeserializedState21reconstituteUrlStringEv",
            "__ZN8Ordering8compoundE8Iterable",
            "__ZN10InputEvent16f_FIRST_HIGH_BITEv",
            "__ZN5World16removeTileEntityE8BlockPos",
            "__ZN20AudioFormat_Encoding12f_PCM_SIGNEDEv",
            "__ZN13ServiceLoader4loadE11ModuleLayer5Class",
            "__ZN20StructureBoundingBox8getXSizeEv",
            "__ZN16EntityLivingBase25collideWithNearbyEntitiesEv",
            "__ZN6Unsafe19putReferenceReleaseE6ObjectlS0_",
            "__ZN8AWTEvent25f_INPUT_METHOD_EVENT_MASKEv",
            "__ZN13TextAttribute17f_POSTURE_REGULAREv",
            "__ZN14ResourceBundle19getLoaderForControlE6Module",
            "__ZN13BufferedImage7initIDsEv",
            "__ZN12EntityPlayer22getInventoryEnderChestEv",
            "__ZN11CoderResult12isUnmappableEv",
            "__ZN11ThreadLocal11withInitialE8Supplier",
            "__ZN24PageAttributes_MediaType10f_I_ISO_C9Ev",
            "__ZN8TimeUnit9toSecondsEl",
            "__ZN5Block12getSubBlocksE4Item12CreativeTabs4List",
            "__ZN14RegionIterator11f_numXbandsEv",
            "__ZN9GuiIngame13func_180474_bEf16ScaledResolution",
            "__ZN19InventoryEnderChest17isUseableByPlayerE12EntityPlayer",
            "__ZN13Configuration7resolveE12ModuleFinder4ListS0_10Collection",
            "__ZN18S2APacketParticles14getXCoordinateEv",
            "__ZN17BoundMethodHandle15speciesData_LLLEv",
            "__ZN10DataFlavor21f_representationClassEv",
            "__ZN5Chunk18resetRelightChecksEv",
            "__ZN15SecurityManager11f_rootGroupEv",
            "__ZN10EnumFacing6f_WESTEv",
            "__ZN17CharToGlyphMapper10canDisplayEc",
            "__ZN5Block14onBlockClickedE5World8BlockPos12EntityPlayer",
            "__ZN10BigDecimal6divideE10BigIntegerilil11MathContext",
            "__ZN4Font7initIDsEv",
            "__ZN15MouseWheelEvent16getWheelRotationEv",
            "__ZN18ScopedMemoryAccess21getAndAddShortReleaseE24ScopedMemoryAccess_Scope6Objectls",
            "__ZN8Matrix4f6negateES_",
            "__ZN10EventQueue17getDispatchThreadEv",
            "__ZN9Formatter6localeEv",
            "__ZN17IdentityArrayList14outOfBoundsMsgEi",
            "__ZN26LocaleProviderAdapter_Type23getUtilResourcesPackageEv",
            "__ZN6Dialog10setOpacityEf",
            "__ZN7Package8isSealedEv",
            "__ZN18ScopedMemoryAccess35getAndBitwiseXorByteReleaseInternalE24ScopedMemoryAccess_Scope6Objectlh",
            "__ZN21InvalidClassException11f_classnameEv",
            "__ZN16InputMethodEvent6f_textEv",
            "__ZN3Gui16drawGradientRectEiiiiii",
            "__ZN12ModuleWriter8visitEndEv",
            "__ZN6Window22f_systemSyncLWRequestsEv",
            "__ZN5oatpp4base11Environment3logEjRKNSt3__112basic_stringIcNS2_11char_traitsIcEENS2_9allocatorIcEEEESA_",
            "__ZN8AWTEvent19f_ACTION_EVENT_MASKEv",
            "__ZN18ScopedMemoryAccess14unloadInternalE24ScopedMemoryAccess_Scopelbl",
            "__ZN12StringBuffer6appendEc",
            "__ZN19NumericShaper_Range15f_TAI_THAM_THAMEv",
            "__ZN5oatpp5async6ActionC1EOS1_",
            "__ZN7Pattern7addFlagEv",
            "__ZN27S1EPacketRemoveEntityEffect15writePacketDataE12PacketBuffer",
            "__ZN8Calendar10getMinimumEi",
            "__ZN24ClassSpecializer_Factory16f_TRANSFORM_MODSEv",
            "__ZN6Source34readBuffersFromNextSoundInSequenceEv",
            "__ZN20C0EPacketClickWindow11getWindowIdEv",
            "__ZN11EntityHorse23f_eatingHaystackCounterEv",
            "__ZN10ColorSpace9f_CS_GRAYEv",
            "__ZN20NetHandlerPlayClient21handleEntityEquipmentE24S04PacketEntityEquipment",
            "__ZN42JobAttributes_MultipleDocumentHandlingType38f_SEPARATE_DOCUMENTS_UNCOLLATED_COPIESEv",
            "__ZN4Gson6toJsonE11JsonElement10JsonWriter",
            "__ZN15MinecraftServer19getMinecraftVersionEv",
            "__ZN12EntityPlayer18addExperienceLevelEi",
            "__ZN18S2APacketParticles14getYCoordinateEv",
            "__ZN27S1EPacketRemoveEntityEffect14readPacketDataE12PacketBuffer",
            "__ZN13BufferedImage7getDataEv",
            "__ZN6Window18processWindowEventE11WindowEvent",
            "__ZN5Score12getObjectiveEv",
            "__ZN16SimpleDateFormat20useDateFormatSymbolsEv",
            "__ZN5oatpp6parser5Caret5Label5startEv",
            "__ZN9Character9isDefinedEi",
            "__ZN6Source6pausedEv",
            "__ZN11ActionEvent16getActionCommandEv",
            "__ZN26ParallelListResourceBundle11containsKeyE6String",
            "__ZN5oatpp3web6server3api13ApiController15getEndpointInfoERKNSt3__112basic_stringIcNS4_11char_traitsIcEENS4_9allocatorIcEEEE",
            "__ZN4Date4fromE7Instant",
            "__ZN9Rectangle6equalsE6Object",
            "__ZN4Menu22constructComponentNameEv",
            "__ZN10FontStrike15getGlyphAdvanceEi",
            "__ZN20DateTimeParseContext14setParsedFieldE13TemporalFieldlii",
            "__ZN10ModelBiped13postRenderArmEf",
            "__ZN11ShortBuffer8toStringEv",
            "__ZN7ByteBuf8getBytesEi20GatheringByteChanneli",
            "__ZN9Minecraft32addGraphicsAndWorldToCrashReportE11CrashReport",
            "__ZN19NumericShaper_Range9f_TIBETANEv",
            "__ZN16IntegratedServer17setStaticInstanceEv",
            "__ZN21S1DPacketEntityEffect10f_effectIdEv",
            "__ZN38ObjectInputStream_BlockDataInputStream16getBlockDataModeEv",
            "__ZN5oatpp3web8protocol4http8outgoing8Response25putOrReplaceHeader_UnsafeERKNS_4data5share16StringKeyLabelCIERKNS6_14StringKeyLabelE",
            "__ZN7EnumMap3getE6Object",
            "__ZN7HashMap19f_TREEIFY_THRESHOLDEv",
            "__ZN6Entity11addVelocityEddd",
            "__ZN7Context24f_currentFrameStackCountEv",
            "__ZN5Agent9f_SCROLLSEv",
            "__ZN14OffsetDateTime6equalsE6Object",
            "__ZN17CommandBlockLogic13updateCommandEv",
            "__ZN14EnumDifficulty8f_NORMALEv",
            "__ZN11WorldBorder4minZEv",
            "__ZN14RegistrySimple7getKeysEv",
            "__ZN11FilenameURL11getFilenameEv",
            "__ZN19DefaultResourcePack15getPackMetadataE19IMetadataSerializer6String",
            "__ZTv0_n24_N5oatpp7network3tcp6server18ConnectionProviderD1Ev",
            "__ZN6Socket17setSendBufferSizeEi",
            "__ZN11SurfaceType10f_AnyShortEv",
            "__ZN6Buffer9markValueEv",
            "__ZN10LambdaForm14signatureArityE6String",
            "__ZN13NumericShaper5shapeE5arr_Ciii",
            "__ZN19S2DPacketOpenWindow11getEntityIdEv",
            "__ZN15InventoryPlayer14setCurrentItemE4Itemibb",
            "__ZN10Graphics2D12getTransformEv",
            "__ZN10BigDecimal7doRoundES_11MathContext",
            "__ZN3URI6f_pathEv",
            "__ZN12PathNavigate10f_worldObjEv",
            "__ZN4Item16getItemUseActionE9ItemStack",
            "__ZN9LocalTime10withSecondEi",
            "__ZN7Instant11plusSecondsEl",
            "__ZN18CommandResultStats13func_179669_aES_23CommandResultStats_Type",
            "__ZN22S1FPacketSetExperience15writePacketDataE12PacketBuffer",
            "__ZN12MethodWriter22f_maxRelativeStackSizeEv",
            "__ZN16EntityLivingBase12onItemPickupE6Entityi",
            "__ZN18ScoreboardSaveData8f_loggerEv",
            "__ZN10Executable17getDeclaringClassEv",
            "__ZN10BigInteger6f_ZEROEv",
            "__ZN8Invokers14maybeCustomizeE12MethodHandle",
            "__ZN15S0APacketUseBed10f_playerIDEv",
            "__ZN16ModuleDescriptor8toStringE3Set6String",
            "__ZN4Font11getFontPeerEv",
            "__ZN15AffineTransform17getRotateInstanceEdd",
            "__ZN11SurfaceType27f_OpaqueRadialGradientPaintEv",
            "__ZN21AbstractStringBuilder6appendEb",
            "__ZN12CreativeTabs25shouldHidePlayerInventoryEv",
            "__ZN12EntityPlayer12wakeUpPlayerEbbb",
            "__ZN9Reference17reachabilityFenceE6Object",
            "__ZN5oatpp4data6stream13WriteCallback29writeExactSizeDataAsyncInlineERNS0_6buffer15InlineWriteDataEONS_5async6ActionE",
            "__ZN30BlockDoublePlant_EnumPlantType7getNameEv",
            "__ZN17StackTraceElement13getMethodNameEv",
            "__ZN9Component37getGraphicsConfiguration_NoClientCodeEv",
            "__ZN18PlayerControllerMP12attackEntityE12EntityPlayer6Entity",
            "__ZN5Class18f_serialVersionUIDEv",
            "__ZN6Unsafe25f_ARRAY_SHORT_INDEX_SCALEEv",
            "__ZN18EnumChatFormatting7isColorEv",
            "__ZN9WorldInfo17getNBTTagCompoundEv",
            "__ZN7Matcher7resultsEv",
            "__ZN10BigDecimal8multiplyEl10BigIntegeri",
            "__ZN16PhantomCleanable6insertEv",
            "__ZN24PageAttributes_MediaType25f_I_NA_NUMBER_10_ENVELOPEEv",
            "__ZN18TextureAtlasSprite13f_tickCounterEv",
            "__ZN24ReentrantContextProvider10f_REF_HARDEv",
            "__ZN3URI13f_decodedPathEv",
            "__ZN6Render12renderShadowE6Entitydddff",
            "__ZN9Minecraft17f_macDisplayModesEv",
            "__ZN14AccessibleRole14f_RADIO_BUTTONEv",
            "__ZN18S21PacketChunkData13func_149274_iEv",
            "__ZN6Dialog11paramStringEv",
            "__ZN13ZonedDateTime8toStringEv",
            "__ZN5Chunk18f_isLightPopulatedEv",
            "__ZN26AbstractQueuedSynchronizer8setStateEi",
            "__ZN5Event6f_HOMEEv",
            "__ZN12CreativeTabs12getTabColumnEv",
            "__ZN26MethodHandleImpl_Intrinsic13f_TRY_FINALLYEv",
            "__ZN13JsonPrimitive19getAsBooleanWrapperEv",
            "__ZN5oatpp3web6server13HttpProcessor9Coroutine12parseHeadersEv",
            "__ZN13CommandObject6f_STOPEv",
            "__ZN9Minecraft24f_debugCrashKeyPressTimeEv",
            "__ZN15AttributeValues13getSwapColorsEv",
            "__ZN11ChronoField11isDateBasedEv",
            "__ZN10ModelBiped14f_bipedLeftArmEv",
            "__ZN7Handler21f_catchTypeDescriptorEv",
            "__ZN12MethodHandle11invokeBasicE16Object_interface",
            "__ZN9Minecraft12f_renderItemEv",
            "__ZN29LambdaFormEditor_TransformKey2ofEhi5arr_I",
            "__ZN13AtomicInteger9addAndGetEi",
            "__ZN5Float17describeConstableEv",
            "__ZN5Float6f_TYPEEv",
            "__ZN5World14unloadEntitiesE10Collection",
            "__ZN6String8isLatin1Ev",
            "__ZN5World13setBlockToAirE8BlockPos",
            "__ZN6Unsafe19getAndAddIntReleaseE6Objectli",
            "__ZN10DateFormat13f_HOUR0_FIELDEv",
            "__ZN5Debug8f_prefixEv",
            "__ZN10DelayQueue3addE7Delayed",
            "__ZN18S27PacketExplosion16f_field_149159_hEv",
            "__ZN13SetVisibility8toStringEv",
            "__ZN3URL21setSerializedHashCodeEi",
            "__ZN17ObjectStreamClass16checkDeserializeEv",
            "__ZN18DirectMethodHandle10f_AF_LIMITEv",
            "__ZN8Sequence12f_resolutionEv",
            "__ZN5oatpp5async6ActionD2Ev",
            "__ZN24C13PacketPlayerAbilities15writePacketDataE12PacketBuffer",
            "__ZN5oatpp3web8protocol4http5utils18CommunicationUtils13selectEncoderERKNSt3__110shared_ptrINS2_8incoming7RequestEEERKNS6_INS2_8encoding18ProviderCollectionEEE",
            "__ZN18DirectMethodHandle14f_NF_checkBaseEv",
            "__ZN12EntityPlayer22getCurrentEquippedItemEv",
            "__ZN26LocaleProviderAdapter_Type5f_SPIEv",
            "__ZN10FileSystem7resolveE4File",
            "__ZN21LocaleProviderAdapter34getJavaTimeDateTimePatternProviderEv",
            "__ZN13ShaderManager9f_programEv",
            "__ZN10EAttribute9f_EFAMILYEv",
            "__ZN17HttpURLConnection21f_HTTP_NOT_ACCEPTABLEEv",
            "__ZN11SurfaceType16f_DESC_ANY_SHORTEv",
            "__ZN14EntityFireball22getCollisionBorderSizeEv",
            "__ZN26ObjectInputStream_GetField3getE6Stringi",
            "__ZN13IsoChronology4dateE16TemporalAccessor",
            "__ZN6Entity14isImmuneToFireEv",
            "__ZN11ThreadGroup9getParentEv",
            "__ZN8KeyEvent14f_VK_SEPARATEREv",
            "__ZN6Entity20applyEntityCollisionES_",
            "__ZN20Block_EnumOffsetType5f_XYZEv",
            "__ZN8CallSite25makeUninitializedCallSiteE10MethodType",
            "__ZN9Hashtable8hashCodeEv",
            "__ZN12MethodHandle19internalCallerClassEv",
            "__ZN13SunGraphics2D9makeHintsE3Map",
            "__ZN11ModuleLayer26defineModulesWithOneLoaderE13Configuration11ClassLoader",
            "__ZN15SecurityManager12getRootGroupEv",
            "__ZN5Chunk20getBlockLightOpacityEiii",
            "__ZN11SurfaceData8pixelForEi",
            "__ZN10LongBuffer11arrayOffsetEv",
            "__ZN9Component10f_focusLogEv",
            "__ZN5Label21f_FLAG_SUBROUTINE_ENDEv",
            "__ZN10EAttribute17f_EBIDI_EMBEDDINGEv",
            "__ZN8Matrix4f9translateE8Vector3fS_S_",
            "__ZN8Vector4f6equalsE6Object",
            "__ZN17IdentityArrayList3addE6Object",
            "__ZN10CharBuffer7compareEcc",
            "__ZN11Rectangle2D8containsEdddd",
            "__ZN25HttpAuthenticationService11constantURLE6String",
            "__ZN8MapColor11f_pinkColorEv",
            "__ZN18ScopedMemoryAccess34getAndBitwiseXorIntReleaseInternalE24ScopedMemoryAccess_Scope6Objectli",
            "__ZN12ItemRenderer14f_itemToRenderEv",
            "__ZN8Matrix4f6rotateEf8Vector3fS_",
            "__ZN8Vector2f3dotES_S_",
            "__ZN18ScopedMemoryAccess25getAndBitwiseOrIntReleaseE24ScopedMemoryAccess_Scope6Objectli",
            "__ZN10LambdaForm8argumentEi20LambdaForm_BasicType",
            "__ZN12ImmutableSet2ofE6Object",
            "__ZN18DirectMethodHandle11f_crackableEv",
            "__ZN10AppContext8toStringEv",
            "__ZN12GameSettings13f_optionsFileEv",
            "__ZN5Class17casAnnotationTypeE14AnnotationTypeS0_",
            "__ZN12NumberFormat17f_SCIENTIFICSTYLEEv",
            "__ZN8KeyEvent6f_VK_LEv",
            "__ZN6Raster13getDataBufferEv",
            "__ZN8Selector6wakeupEv",
            "__ZN5Debug7printlnE6StringS0_",
            "__ZN12RenderGlobal15f_renderManagerEv",
            "__ZN19CrashReportCategory17getCoordinateInfoEddd",
            "__ZN12PacketBuffer9writeUuidE4UUID",
            "__ZN13MessageHeader18multiValueIteratorE6String",
            "__ZN19ChunkProviderServer16getStrongholdGenE5World6String8BlockPos",
            "__ZN11AAShapePipe11renderTilesE13SunGraphics2D5Shape15AATileGenerator5arr_I21AAShapePipe_TileState",
            "__ZN13EntityHanging10moveEntityEddd",
            "__ZN18ScopedMemoryAccess30weakCompareAndSetDoubleAcquireE24ScopedMemoryAccess_Scope6Objectldd",
            "__ZN26ObjectInputStream_GetField3getE6String6Object",
            "__ZN7Charset6equalsE6Object",
            "__ZN7MenuBar20getAccessibleContextEv",
            "__ZTWN5oatpp4base11Environment25m_threadLocalObjectsCountE",
            "__ZN11ViewFrustum18createRenderChunksE19IRenderChunkFactory",
            "__ZN21DragGestureRecognizer13getDragSourceEv",
            "__ZN5Class7getNameEv",
            "__ZN5oatpp3web6server13HttpProcessor10ComponentsC2ERKNSt3__110shared_ptrINS1_10HttpRouterEEERKNS5_INS2_6ConfigEEE",
            "__ZN13SunGraphics2D10drawStringE6Stringff",
            "__ZN8KeyEvent13f_keyLocationEv",
            "__ZN7KeyPair9getPublicEv",
            "__ZN8Duration6toDaysEv",
            "__ZN13MethodVisitor9visitMaxsEii",
            "__ZN5World22getPrecipitationHeightE8BlockPos",
            "__ZN15AttributeValues15getRunDirectionEv",
            "__ZN5oatpp5async16CoroutineStarter4nextEONS0_6ActionE",
            "__ZN6Window15isModalExcludedE25Dialog_ModalExclusionType",
            "__ZN13ImmutableList2ofE6ObjectS0_",
            "__ZN12EntityLiving14onInitialSpawnE18DifficultyInstance17IEntityLivingData",
            "__ZN11ModuleLayer12bindToLoaderE11ClassLoader",
            "__ZN8KeyEvent6f_VK_CEv",
            "__ZN5Color8getColorE6String",
            "__ZN14ResolvedModule5readsEv",
            "__ZN14InventoryBasic13func_110132_bE9IInvBasic",
            "__ZN9Component19f_hierarchyListenerEv",
            "__ZN19DropTargetDropEvent12f_dropActionEv",
            "__ZN13WorldSettings13f_theGameTypeEv",
            "__ZN9Component22getParent_NoClientCodeEv",
            "__ZN10DropTarget24removeDropTargetListenerE18DropTargetListener",
            "__ZN6Line2D5getP1Ev",
            "__ZN17ObjectStreamClass19f_writeObjectMethodEv",
            "__ZN9LocalDate13lengthOfMonthEv",
            "__ZN13SunGraphics2D9drawImageE5Image15AffineTransform13ImageObserver",
            "__ZN7Village13func_179862_aE8BlockPosiii",
            "__ZN13RenderManager9f_skinMapEv",
            "__ZN9Gregorian15getCalendarDateEl",
            "__ZN10IntHashMap12getSlotIndexEii",
            "__ZN32ReentrantReadWriteLock_WriteLock17lockInterruptiblyEv",
            "__ZN11SurfaceData15makeRenderLoopsE11SurfaceType13CompositeTypeS0_",
            "__ZN11WorldServer16addScheduledTaskE8Runnable",
            "__ZN13Attribute_Set3addE9Attribute",
            "__ZN6Window8getOwnerEv",
            "__ZN3URI6decodeEc",
            "__ZN10ColorModel9f_maxBitsEv",
            "__ZN11ClassWriter12f_superClassEv",
            "__ZN17AccessibleContext23f_accessibleDescriptionEv",
            "__ZN9Dimension6equalsE6Object",
            "__ZN15DatagramChannel15getLocalAddressEv",
            "__ZN4Long3sumEll",
            "__ZN16BaseAttributeMap13func_180794_aE18IAttributeInstance",
            "__ZN12NumberFormat17getNumberInstanceEv",
            "__ZN17DragSourceContext9setCursorE6Cursor",
            "__ZN11PropertyMap12f_propertiesEv",
            "__ZN17MutableBigInteger6getIntEi",
            "__ZN11ClassLoader17trySetObjectFieldE6String6Object",
            "__ZN5oatpp6parser4json7mapping12ObjectMapper12createSharedERKNSt3__110shared_ptrINS2_10SerializerEEERKNS5_INS2_12DeserializerEEE",
            "__ZN9Character12isISOControlEc",
            "__ZN13CommandThread8f_loggerEv",
            "__ZN6Render17renderLivingLabelE6Entity6Stringdddi",
            "__ZN12CalendarDate8addMonthEi",
            "__ZN13ModelRenderer6addBoxEfffiiif",
            "__ZN26MethodHandleImpl_Intrinsic12f_ARRAY_LOADEv",
            "__ZN6Unsafe21getAndAddFloatReleaseE6Objectlf",
            "__ZN15AttributeValues6equalsES_",
            "__ZN21DragGestureRecognizer15getTriggerEventEv",
            "__ZN9Character11isLowerCaseEi",
            "__ZN12BiomeGenBase14f_extremeHillsEv",
            "__ZN11SoundSystem17CommandNewLibraryE5Class",
            "__ZN5oatpp3web8protocol4http8incoming7Request13putBundleDataERKNS_4data7mapping4type6StringERKNS7_4VoidE",
            "__ZN9WorldInfo14setSaveVersionEi",
            "__ZN14EntityPlayerSP16f_hasValidHealthEv",
            "__ZN22ReentrantReadWriteLock28isWriteLockedByCurrentThreadEv",
            "__ZN6Socket15getOutputStreamEv",
            "__ZN18ScopedMemoryAccess14getShortOpaqueE24ScopedMemoryAccess_Scope6Objectl",
            "__ZN12EntityAnimal16f_spawnableBlockEv",
            "__ZN9JsonArray6addAllES_",
            "__ZN26ParallelListResourceBundle8f_lookupEv",
            "__ZN14ResourceBundle17getBaseBundleNameEv",
            "__ZN6BitSet8hashCodeEv",
            "__ZN13ModuleVisitor5f_apiEv",
            "__ZN4Menu12removeNotifyEv",
            "__ZN14MethodTypeForm13f_LF_DELEGATEEv",
            "__ZN7TreeMap6removeE6Object",
            "__ZN6BitSet3setEib",
            "__ZN9Minecraft13func_181537_aEb",
            "__ZN9Rectangle4clipEdb",
            "__ZN14CharsetEncoder15maxBytesPerCharEv",
            "__ZN14AccessibleRole6f_MENUEv",
            "__ZN6Buffer10f_capacityEv",
            "__ZN17DateTimeFormatter8withZoneE6ZoneId",
            "__ZN11LongHashMap6f_maskEv",
            "__ZN12PacketBuffer15forEachByteDescEii16ByteBufProcessor",
            "__ZN8KeyEvent11f_VK_INSERTEv",
            "__ZN6Entity21isInRangeToRenderDistEd",
            "__ZN11DataWatcher16setObjectWatchedEi",
            "__ZN18MemorySegmentProxy7isSmallEv",
            "__ZN5World11setLightForE12EnumSkyBlock8BlockPosi",
            "__ZN12DamageSource11f_explosionEv",
            "__ZN7Boolean6equalsE6Object",
            "__ZN10BigDecimal8multiplyES_11MathContext",
            "__ZN15ScorePlayerTeam12func_98299_iEv",
            "__ZN11Certificate6equalsE6Object",
            "__ZN42AbstractQueuedSynchronizer_ConditionObject20awaitUninterruptiblyEv",
            "__ZN14EntityRenderer8f_loggerEv",
            "__ZN7Charset16f_defaultCharsetEv",
            "__ZN6Window26setOwnedWindowsAlwaysOnTopEb",
            "__ZN8Vector3D3f_xEv",
            "__ZN8EntityFX17nextTextureIndexXEv",
            "__ZN9Crossings7isEmptyEv",
            "__ZN10ClassValue14getFromHashMapE5Class",
            "__ZN5Event4f_F4Ev",
            "__ZN8FontInfo8toStringEv",
            "__ZN9Hashtable8f_VALUESEv",
            "__ZN6Cursor21f_systemCustomCursorsEv",
            "__ZN15LinkedList_Node6f_prevEv",
            "__ZN11EntityHorse7mountToE12EntityPlayer",
            "__ZN6Source10errorCheckEb6String",
            "__ZN21LightweightDispatcher7f_focusEv",
            "__ZN10BigDecimal12f_ROUND_DOWNEv",
            "__ZN14CalendarSystem15newCalendarDateE8TimeZone",
            "__ZN33MethodHandles_Lookup_ClassDefiner6f_nameEv",
            "__ZN9Character14f_OTHER_SYMBOLEv",
            "__ZN6Thread9enumerateE16Thread_interface",
            "__ZN17CharToGlyphMapper10canDisplayEi",
            "__ZN19ImmutableCollection3addE6Object",
            "__ZN24AnimationMetadataSection17f_animationFramesEv",
            "__ZN15EntityItemFrame10entityInitEv",
            "__ZN10MemberName20isMethodHandleInvokeEv",
            "__ZN17MutableBigInteger4onesEi",
            "__ZN14ContainerEvent7f_childEv",
            "__ZN15LambdaForm_Kind18f_GUARD_WITH_CATCHEv",
            "__ZN7MenuBar16getMenuCountImplEv",
            "__ZN17SoundSystemLogger12errorMessageE6StringS0_i",
            "__ZN6Cursor18f_CROSSHAIR_CURSOREv",
            "__ZN20ChunkRenderContainer13f_initializedEv",
            "__ZN20NetHandlerPlayServer18processChatMessageE20C01PacketChatMessage",
            "__ZN18ScopedMemoryAccess36compareAndExchangeIntReleaseInternalE24ScopedMemoryAccess_Scope6Objectlii",
            "__ZN14EntityPlayerMP21onEnchantmentCriticalE6Entity",
            "__ZN15InventoryPlayer8setFieldEii",
            "__ZN6Line2D10intersectsEdddd",
            "__ZN12CalendarDate12setTimeOfDayEl",
            "__ZN17AttributeModifier12getOperationEv",
            "__ZN7ByteBuf9readShortEv",
            "__ZN10LambdaForm9fixResultEi25LambdaForm_Name_interface",
            "__ZN12SoundManager23f_playingSoundsStopTimeEv",
            "__ZN14EntityPlayerSP6isUserEv",
            "__ZN6Entity11hitByEntityES_",
            "__ZN6Thread7isAliveEv",
            "__ZN6Path2D23f_SERIAL_SEG_DBL_LINETOEv",
            "__ZN11GlyphVector15getGlyphOutlineEi",
            "__ZN7Pattern5flagsEv",
            "__ZN13ImmutableList2ofE6ObjectS0_S0_S0_S0_S0_",
            "__ZN11SurfaceData8pixelForE5Color",
            "__ZN24PageAttributes_MediaType11f_ENV_10X14Ev",
            "__ZN21LoadingScreenRenderer12f_systemTimeEv",
            "__ZN12PacketBuffer8getShortEi",
            "__ZN5Color8brighterEv",
            "__ZN8JsonNull10f_INSTANCEEv",
            "__ZN20AccessControlContext11f_debugInitEv",
            "__ZN13EntityTracker10f_theWorldEv",
            "__ZN21MimeTypeParameterList12f_parametersEv",
            "__ZN15LambdaForm_Kind8f_SPREADEv",
            "__ZN18DirectMethodHandle27makePreparedFieldLambdaFormEhbi",
            "__ZN5oatpp3web3url7mapping7Pattern5parseEPKc",
            "__ZN7Instant13ofEpochSecondEl",
            "__ZN18EnumChatFormatting6f_BLUEEv",
            "__ZN9Component8toStringEv",
            "__ZN13WorldRenderer9f_yOffsetEv",
            "__ZN12EntityLiving17readEntityFromNBTE14NBTTagCompound",
            "__ZN9Minecraft12f_saveLoaderEv",
            "__ZN10EntityItem6getAgeEv",
            "__ZN8Calendar8f_SECONDEv",
            "__ZN7Wrapper14isSubwordOrIntEv",
            "__ZN6Unsafe31weakCompareAndSetBooleanAcquireE6Objectlbb",
            "__ZN6Method17getParameterCountEv",
            "__ZN16SimpleDateFormat17zeroPaddingNumberEiii12StringBuffer",
            "__ZN13ImmutableList15asImmutableListE16Object_interface",
            "__ZN17ShapeSpanIterator7initIDsEv",
            "__ZN20GameSettings_Options28f_STREAM_MIC_TOGGLE_BEHAVIOREv",
            "__ZN12EntityPlayer13addExperienceEi",
            "__ZN6Entity22f_renderDistanceWeightEv",
            "__ZN14DatagramSocket12setSoTimeoutEi",
            "__ZN10ServerData12f_serverIconEv",
            "__ZN28ConcurrentHashMap_KeySetView14getMappedValueEv",
            "__ZN21AbstractStringBuilder6appendEc",
            "__ZN11Enchantment13func_181077_cEv",
            "__ZN16LocaleExtensions13f_NUMBER_THAIEv",
            "__ZN5Track6removeE9MidiEvent",
            "__ZN8FillRect6locateE11SurfaceType13CompositeTypeS0_",
            "__ZN5Frame12f_LOCAL_KINDEv",
            "__ZN5Class16getDeclaredFieldE6String",
            "__ZN6Locale8f_KOREANEv",
            "__ZN10BigDecimal4plusE11MathContext",
            "__ZN14StatFileWriter13func_150872_aE8StatBase17IJsonSerializable",
            "__ZN9Character11codePointAtE5arr_Cii",
            "__ZN6Unsafe14putCharReleaseE6Objectlc",
            "__ZN9TextStyle15toCalendarStyleEv",
            "__ZN5oatpp3web6server3api8Endpoint4Info5ParamC2ERKNS_4data7mapping4type6StringEPNS8_4TypeE",
            "__ZN13PriorityQueue12f_comparatorEv",
            "__ZN12DoubleBuffer8allocateEi",
            "__ZN11ClassReader7getItemEi",
            "__ZN26ServerConfigurationManager25removePlayerFromWhitelistE11GameProfile",
            "__ZN12BiomeGenBase17getSkyColorByTempEf",
            "__ZN20AccessControlContext12isAuthorizedEv",
            "__ZN8Profiler10endSectionEv",
            "__ZN5Chunk19getTopFilledSegmentEv",
            "__ZN3URI8toStringE6StringS0_S0_S0_S0_iS0_S0_S0_",
            "__ZN5oatpp4base11LogCategory14enablePriorityEj",
            "__ZN6Font2D7getRankEv",
            "__ZN6Socket11getSoLingerEv",
            "__ZN13SunGraphics2D7setFontE4Font",
            "__ZN11SurfaceData13getColorModelEv",
            "__ZN10ZoneOffset11isSupportedE13TemporalField",
            "__ZN6Path2D15f_WIND_NON_ZEROEv",
            "__ZN9Explosion10f_worldObjEv",
            "__ZN9GuiScreen8f_heightEv",
            "__ZN9ItemStack18f_stackTagCompoundEv",
            "__ZN12VillageSiege15f_field_75536_cEv",
            "__ZN9Component12setFocusableEb",
            "__ZN12MethodWriter15f_currentLocalsEv",
            "__ZN13SoundRegistry19createUnderlyingMapEv",
            "__ZN8Splitter7f_limitEv",
            "__ZN4Blit17f_methodSignatureEv",
            "__ZN12EntityPlayer12getFoodStatsEv",
            "__ZN6Potion11f_blindnessEv",
            "__ZN5Event20f_KEY_ACTION_RELEASEEv",
            "__ZN10JsonObject14getAsJsonArrayE6String",
            "__ZN15MinecraftServer21f_worldIsBeingDeletedEv",
            "__ZN10UniqueName6equalsE6Object",
            "__ZN9Reference6clear0Ev",
            "__ZN20AbstractClientPlayer13hasPlayerInfoEv",
            "__ZN9Component18firePropertyChangeE6Stringii",
            "__ZN13MenuComponent8f_parentEv",
            "__ZN9ItemStack17attemptDamageItemEi6Random",
            "__ZN25ChunkCompileTaskGenerator21f_listFinishRunnablesEv",
            "__ZN23ResourceBundle_CacheKey11f_providersEv",
            "__ZN16LambdaFormBuffer7f_flagsEv",
            "__ZN9ArrayList6equalsE6Object",
            "__ZN10SocketImpl6createEb",
            "__ZN11GameProfile8toStringEv",
            "__ZN6Number11doubleValueEv",
            "__ZN7Toolkit11f_LONG_BITSEv",
            "__ZN12GlyphMetrics10isStandardEv",
            "__ZN17ObjectInputStream10readRecordE17ObjectStreamClass",
            "__ZN11BasicStroke9getEndCapEv",
            "__ZN10TextureMap11loadSpritesE16IResourceManager12IIconCreator",
            "__ZN14SoundPoolEntry16f_streamingSoundEv",
            "__ZN5oatpp4data6stream22ConsistentOutputStream13writeAsStringEh",
            "__ZN8MaskFill9traceWrapEv",
            "__ZN11CoreMetrics20f_underlineThicknessEv",
            "__ZN14AlphaComposite7f_SrcInEv",
            "__ZNK5oatpp4data7mapping4type3AnyneEDn",
            "__ZN13ModelRenderer13f_childModelsEv",
            "__ZN18AbstractChronology21resolveProlepticMonthE3Map13ResolverStyle",
            "__ZN12MenuShortcut6equalsES_",
            "__ZN24PageAttributes_MediaType4f_C8Ev",
            "__ZN5Chunk18isTerrainPopulatedEv",
            "__ZN6Buffer23createCapacityExceptionEi",
            "__ZN6Thread13currentThreadEv",
            "__ZN17ObjectInputStream16readNonProxyDescEb",
            "__ZN24PageAttributes_MediaType8f_ISO_A4Ev",
            "__ZN13SetVisibility13setAllVisibleEb",
            "__ZN7Integer6signumEi",
            "__ZN8Calendar13f_SECOND_MASKEv",
            "__ZN10JsonWriter10replaceTopEi",
            "__ZN6Socket10createImplEb",
            "__ZN6String7isEmptyEv",
            "__ZN11WorldBorder15getDamageAmountEv",
            "__ZN14ComponentEvent17f_COMPONENT_MOVEDEv",
            "__ZN11ClassWriter26f_permittedSubclassClassesEv",
            "__ZN13LocalDateTime11toLocalTimeEv",
            "__ZN10LongBuffer4wrapE5arr_Jii",
            "__ZN11ThreadGroup12addUnstartedEv",
            "__ZN11EntityHorse19spawnHorseParticlesEb",
            "__ZN20S29PacketSoundEffect6f_posYEv",
            "__ZN12ItemRenderer16renderPlayerArmsE20AbstractClientPlayer",
            "__ZN7Instant5rangeE13TemporalField",
            "__ZN9Component28isFocusTraversableOverriddenEv",
            "__ZN17ReflectionFactory35findReadWriteObjectForSerializationE5Class6StringS0_",
            "__ZN15LocaleResources19f_DATE_TIME_PATTERNEv",
            "__ZN12CreativeTabs21getTranslatedTabLabelEv",
            "__ZN23S19PacketEntityHeadLook14readPacketDataE12PacketBuffer",
            "__ZN17GraphicsPrimitive13getPrimTypeIDEv",
            "__ZN8Provider7replaceE6ObjectS0_",
            "__ZN16ScaledResolution14getScaleFactorEv",
            "__ZN14RenderingHints23f_KEY_FRACTIONALMETRICSEv",
            "__ZN13TextAttribute18f_serialVersionUIDEv",
            "__ZN15AffineTransform17getRotateInstanceEd",
            "__ZN18AccessibleRelation9setTargetE16Object_interface",
            "__ZN11ClassWriter11f_thisClassEv",
            "__ZThn16_N5oatpp7network3tcp10Connection21getOutputStreamIOModeEv",
            "__ZN17MutableBigInteger10divide3n2nES_S_",
            "__ZN18ScopedMemoryAccess34getAndBitwiseOrCharReleaseInternalE24ScopedMemoryAccess_Scope6Objectlc",
            "__ZN10LinkedList8addFirstE6Object",
            "__ZN9MidiEvent10getMessageEv",
            "__ZN14C0CPacketInput14f_forwardSpeedEv",
            "__ZN10Executable21sharedToGenericStringEib",
            "__ZN10ValueRange8hashCodeEv",
            "__ZN19DragSourceDragEvent16getTargetActionsEv",
            "__ZN6Window7f_stateEv",
            "__ZN24PageAttributes_MediaType11f_ENV_ITALYEv",
            "__ZN16NetworkInterface7getNameEv",
            "__ZN8Matrix4f18f_serialVersionUIDEv",
            "__ZN6Socket14sendUrgentDataEi",
            "__ZN9WorldType15setCanBeCreatedEb",
            "__ZN7TreeMap24descendingKeySpliteratorEv",
            "__ZN12BiomeGenBase22f_waterColorMultiplierEv",
            "__ZN17ReflectionFactory32newConstructorForExternalizationE5Class",
            "__ZN6Unsafe7putByteElh",
            "__ZN9PathPoint10isAssignedEv",
            "__ZN12EntityPlayer14getGameProfileEv",
            "__ZN16EntityLivingBase19f_potionsNeedUpdateEv",
            "__ZN10LongBuffer3getEv",
            "__ZN13DecimalFormat14f_groupingSizeEv",
            "__ZN14OffsetDateTime9compareToES_",
            "__ZN19DropTargetDropEvent10f_locationEv",
            "__ZN17ObjectStreamClass14f_primDataSizeEv",
            "__ZN31AbstractQueuedSynchronizer_Node16setStatusRelaxedEi",
            "__ZN5Float14f_MIN_EXPONENTEv",
            "__ZN12StringBuffer6appendEl",
            "__ZN10DragSource18f_serialVersionUIDEv",
            "__ZN8Calendar8toStringEv",
            "__ZN15EntityItemFrame21isInRangeToRenderDistEd",
            "__ZN4Item12isDamageableEv",
            "__ZN18ScopedMemoryAccess30getAndSetDoubleAcquireInternalE24ScopedMemoryAccess_Scope6Objectld",
            "__ZN14CharsetEncoder11f_ST_CODINGEv",
            "__ZN10BigInteger28implMontgomeryMultiplyChecksE5arr_IS0_S0_iS0_",
            "__ZN8Vector2f6negateEv",
            "__ZN10BigDecimal11f_precisionEv",
            "__ZN16IntegratedServer10shareToLANE22WorldSettings_GameTypeb",
            "__ZN12ValidatePipe14transformImageE13SunGraphics2D5Image15AffineTransform13ImageObserver",
            "__ZN13WorldRenderer8lightmapEii",
            "__ZN9Minecraft19getAmbientMusicTypeEv",
            "__ZN8AWTEvent7initIDsEv",
            "__ZN10CharBuffer5resetEv",
            "__ZN5Class20createAnnotationDataEi",
            "__ZN11EntityHorse6isTameEv",
            "__ZN15AttributeValues10setKerningEi",
            "__ZN14CharsetDecoder9implFlushE10CharBuffer",
            "__ZN12DoubleBuffer4flipEv",
            "__ZN10ValueRange2ofEllll",
            "__ZN16SimpleDateFormat6encodeEii13StringBuilder",
            "__ZN17WorldChunkManager17f_biomesToSpawnInEv",
            "__ZN18PlayerCapabilities11f_walkSpeedEv",
            "__ZN12GameSettings11f_chatLinksEv",
            "__ZN9GuiButton12mousePressedE9Minecraftii",
            "__ZN6Insets8f_bottomEv",
            "__ZN24PageAttributes_MediaType5f_I_EEv",
            "__ZN14CalendarSystem14getMonthLengthE12CalendarDate",
            "__ZN10InputEvent24canAccessSystemClipboardEv",
            "__ZN12DamageSource7f_drownEv",
            "__ZN12EntityLiving13getLookHelperEv",
            "__ZN12VillageSiege15f_field_75532_gEv",
            "__ZN20MethodHandles_Lookup16makeClassDefinerE5arr_B",
            "__ZN9ArrayList9elementAtE16Object_interfacei",
            "__ZN4Date7setTimeEl",
            "__ZN10TextureMap26f_LOCATION_MISSING_TEXTUREEv",
            "__ZN13AxisAlignedBB6f_maxYEv",
            "__ZN7TreeMap7lastKeyEv",
            "__ZN8TimeZone20observesDaylightTimeEv",
            "__ZN6Entity22setAlwaysRenderNameTagEb",
            "__ZN10LambdaForm7namesOKEi25LambdaForm_Name_interface",
            "__ZN12GameSettings22f_streamChatUserFilterEv",
            "__ZN7TreeMap10remapValueE13TreeMap_Entry6Object10BiFunction",
            "__ZN18ReentrantLock_Sync7tryLockEv",
            "__ZN10LongBuffer5limitEi",
            "__ZN8MenuItem14handleShortcutE8KeyEvent",
            "__ZN20CalendarDataProvider25getMinimalDaysInFirstWeekE6Locale",
            "__ZN10Properties10f_defaultsEv",
            "__ZN18ScopedMemoryAccess35getAndBitwiseOrShortAcquireInternalE24ScopedMemoryAccess_Scope6Objectls",
            "__ZN11DataWatcher21getWatchableObjectIntEi",
            "__ZN18ClassValue_Version10classValueEv",
            "__ZN21ConcurrentLinkedQueue7isEmptyEv",
            "__ZN27BiomeGenBase_SpawnListEntry8toStringEv",
            "__ZN9Minecraft15f_twitchDetailsEv",
            "__ZN11EntityHorse14increaseTemperEi",
            "__ZN15MinecraftServer10stopServerEv",
            "__ZN21S1DPacketEntityEffect15f_hideParticlesEv",
            "__ZN17ConcurrentHashMap3getE6Object",
            "__ZN12EntityLiving17f_livingSoundTimeEv",
            "__ZN7Polygon15getPathIteratorE15AffineTransformd",
            "__ZN16SurfaceDataProxy11f_thresholdEv",
            "__ZN5World27updateComparatorOutputLevelE8BlockPos5Block",
            "__ZN7Matcher6regionEii",
            "__ZN11WeakHashMap4sizeEv",
            "__ZN15IndexColorModel15setTransparencyEi",
            "__ZN6Reader5closeEv",
            "__ZN6Module16addExportsToAll0ES_6String",
            "__ZN9GuiButton12mouseDraggedE9Minecraftii",
            "__ZN6Parsed18resolveTimeLenientEv",
            "__ZN17AttributeModifier8toStringEv",
            "__ZN18RegistryNamespaced11containsKeyE6Object",
            "__ZN6Window9isShowingEv",
            "__ZN30ObjectOutputStream_HandleTable5clearEv",
            "__ZN18PlayerCapabilities12getWalkSpeedEv",
            "__ZN5Float3minEff",
            "__ZN6Entity8hashCodeEv",
            "__ZN8MenuItem11f_eventMaskEv",
            "__ZN6Reader5resetEv",
            "__ZN9Minecraft11f_thePlayerEv",
            "__ZN9WorldInfo21isHardcoreModeEnabledEv",
            "__ZN15EntityItemFrame16writeEntityToNBTE14NBTTagCompound",
            "__ZN15C03PacketPlayer12getPositionXEv",
            "__ZN12EntityLiving12dropFewItemsEbi",
            "__ZN6Unsafe16putLongUnalignedE6Objectll",
            "__ZN12InputContext14endCompositionEv",
            "__ZNK5oatpp3web8protocol4http8incoming7Request9getBundleEv",
            "__ZN12BaseCalendar12getFixedDateEiii17BaseCalendar_Date",
            "__ZN8KeyEvent15f_isProxyActiveEv",
            "__ZN7Toolkit13getEventQueueEv",
            "__ZN13LocalDateTime13getDayOfMonthEv",
            "__ZN5Class8isHiddenEv",
            "__ZN6Locale20getDefaultExtensionsE6String",
            "__ZN13JobAttributes11getFileNameEv",
            "__ZN14EntityPlayerSP11dropOneItemEb",
            "__ZN18PlayerControllerMP19syncCurrentPlayItemEv",
            "__ZN18PlayerProfileCache14f_gameProfilesEv",
            "__ZN19DragSourceDragEvent19getGestureModifiersEv",
            "__ZN21AbstractStringBuilder9setLengthEi",
            "__ZN20ServerStatusResponse10setFaviconE6String",
            "__ZN8Vector4f5angleES_S_",
            "__ZN10JsonWriter7newlineEv",
            "__ZN14AccessibleRole8f_FOOTEREv",
            "__ZN15AffineTransform11updateStateEv",
            "__ZN6Writer5flushEv",
            "__ZN9Minecraft10initStreamEv",
            "__ZN26BlockFlower_EnumFlowerType6f_metaEv",
            "__ZN31ObjectOutputStream_PutFieldImpl3putE6Stringi",
            "__ZN9Minecraft19getIntegratedServerEv",
            "__ZN10LambdaForm12isTryFinallyEi",
            "__ZN10ByteBuffer12asCharBufferEv",
            "__ZN7ByteBuf8getBytesEiS_i",
            "__ZN10EventQueue18removeSourceEventsE6Objectb",
            "__ZN11Certificate6verifyE9PublicKey6String",
            "__ZN13BufferedImage15getWritableTileEii",
            "__ZN5Month6lengthEb",
            "__ZN6Unsafe30compareAndExchangeShortReleaseE6Objectlss",
            "__ZN11TypeAdapter5writeE10JsonWriter6Object",
            "__ZN22PatternSyntaxException10getPatternEv",
            "__ZN11WorldServer8f_loggerEv",
            "__ZN5Class11getResourceE6String",
            "__ZN5Class14getPackageNameEv",
            "__ZN14FontStrikeDesc10f_hashCodeEv",
            "__ZN10ByteBuffer8hashCodeEv",
            "__ZN6Thread11checkAccessEv",
            "__ZN10ServerData13f_gameVersionEv",
            "__ZN12FontRenderer19renderStringAlignedE6Stringiiiib",
            "__ZN20AccessControlContext14f_isPrivilegedEv",
            "__ZN24S39PacketPlayerAbilities15setInvulnerableEb",
            "__ZN9Component12f_maxSizeSetEv",
            "__ZN7Polygon11getBounds2DEv",
            "__ZN14RegistrySimple9putObjectE6ObjectS0_",
            "__ZN26BlockFlower_EnumFlowerType11f_blockTypeEv",
            "__ZN13SunGraphics2D8fillRectEiiii",
            "__ZN15WorldGenBigTree20generateLeafNodeListEv",
            "__ZThn16_N5oatpp7network3tcp10ConnectionD1Ev",
            "__ZN9Component8doLayoutEv",
            "__ZN6Entity11isSprintingEv",
            "__ZN6Entity13isEntityAliveEv",
            "__ZN4Enum6f_nameEv",
            "__ZN13ZonedDateTime14resolveInstantE13LocalDateTime",
            "__ZN17MutableBigInteger6divaddE5arr_IS0_i",
            "__ZN6Unsafe13putIntReleaseE6Objectli",
            "__ZN7Instant6equalsE6Object",
            "__ZN17ObjectStreamClass16f_externalizableEv",
            "__ZN10BigDecimal3addE10BigIntegeriS0_i",
            "__ZN12DecimalStyle16withPositiveSignEc",
            "__ZN17ConcurrentHashMap13f_LOAD_FACTOREv",
            "__ZN36ServerStatusResponse_PlayerCountData12f_maxPlayersEv",
            "__ZN9TypeToken3getE5Class",
            "__ZN13MovementInput21updatePlayerMoveStateEv",
            "__ZN11ClassWriter21f_lastRecordComponentEv",
            "__ZN9WorldInfo13setThunderingEb",
            "__ZN18ScopedMemoryAccess14putLongReleaseE24ScopedMemoryAccess_Scope6Objectll",
            "__ZN7ByteBuf10writeBytesE5arr_B",
            "__ZN9Rectangle7setSizeEii",
            "__ZN12VertexBuffer12f_glBufferIdEv",
            "__ZN8KeyEvent10f_VK_SLASHEv",
            "__ZN5World11setItemDataE6String14WorldSavedData",
            "__ZN12CreativeTabs12f_theTextureEv",
            "__ZN13SunGraphics2D19f_MinPenSizeSquaredEv",
            "__ZN11GsonBuilder26registerTypeAdapterFactoryE18TypeAdapterFactory",
            "__ZN12SoundManager8f_loggerEv",
            "__ZN5Block13getBlockLayerEv",
            "__ZN5oatpp3web6server21HttpConnectionHandler12createSharedERKNSt3__110shared_ptrINS1_10HttpRouterEEE",
            "__ZN8KeyEvent8f_VK_ENDEv",
            "__ZN20ZoneOffsetTransition8hashCodeEv",
            "__ZN9Character8hashCodeEv",
            "__ZN6BitSet10nextSetBitEi",
            "__ZN5Block16f_field_181083_KEv",
            "__ZN6Entity11getPositionEv",
            "__ZN6Source4cullEv",
            "__ZN12EntityPlayer12updateRiddenEv",
            "__ZN15LanguageManager22isCurrentLocaleUnicodeEv",
            "__ZN6Entity22getExplosionResistanceE9Explosion5World8BlockPos11IBlockState",
            "__ZN13SunGraphics2D19f_interpolationTypeEv",
            "__ZN20UnmodifiableIterator6removeEv",
            "__ZN13BreakIterator12f_WORD_INDEXEv",
            "__ZN18ArrayTypeSignature15f_componentTypeEv",
            "__ZN13SunGraphics2D19f_textAntialiasHintEv",
            "__ZN21LocaleProviderAdapter7forTypeE26LocaleProviderAdapter_Type",
            "__ZN5Event16f_WINDOW_DESTROYEv",
            "__ZN15CalendarBuilder10f_COMPUTEDEv",
            "__ZN17ReflectionFactory23findMethodForReflectionE6Method",
            "__ZN9Component22constructComponentNameEv",
            "__ZN8Vector2f6negateES_",
            "__ZN4File13getTotalSpaceEv",
            "__ZN12StringBuffer6appendES_",
            "__ZN9GuiIngame17f_streamIndicatorEv",
            "__ZN14ScoreObjective11getCriteriaEv",
            "__ZN6Method14getGenericInfoEv",
            "__ZN6Method21acquireMethodAccessorEv",
            "__ZN9Component17f_actionListenerKEv",
            "__ZN8Matrix4f5storeE11FloatBuffer",
            "__ZN3URL18f_serialVersionUIDEv",
            "__ZN21S19PacketEntityStatus13processPacketE21INetHandlerPlayClient",
            "__ZN5oatpp4data7mapping4type7__class6UInt647getTypeEv",
            "__ZN11MusicTicker20f_timeUntilNextMusicEv",
            "__ZN5oatpp7network3tcp6server18ConnectionProvider18ExtendedConnectionC2EiONS_4data5share21LazyStringMapTemplateINS6_14StringKeyLabelENSt3__113unordered_mapIS8_S8_NS9_4hashIS8_EENS9_8equal_toIS8_EENS9_9allocatorINS9_4pairIKS8_S8_EEEEEEEE",
            "__ZN18DirectMethodHandle19f_AF_GETSTATIC_INITEv",
            "__ZN10ChronoUnit8f_MILLISEv",
            "__ZN24S04PacketEntityEquipment13processPacketE21INetHandlerPlayClient",
            "__ZN10JsonWriter8endArrayEv",
            "__ZN13JsonPrimitive11getAsDoubleEv",
            "__ZN11SymbolTable3addE17SymbolTable_Entry",
            "__ZN9LocalDate10compareTo0ES_",
            "__ZN18PlayerUsageSnooper16isSnooperRunningEv",
            "__ZN10BigDecimal8multiplyE10BigIntegerS0_i",
            "__ZN7Wrapper12f_FLOAT_ZEROEv",
            "__ZN18AbstractCollection9retainAllE10Collection",
            "__ZN7Library8getTitleEv",
            "__ZN9ZoneRules8hashCodeEv",
            "__ZN20ServerStatusResponse22setProtocolVersionInfoE55ServerStatusResponse_MinecraftProtocolVersionIdentifier",
            "__ZN7Toolkit11createImageE13ImageProducer",
            "__ZN10BigInteger6addOneE5arr_Iiii",
            "__ZN9Minecraft8f_isDemoEv",
            "__ZN5oatpp5utils10conversion12strToFloat64EPKc",
            "__ZN7EnumSet2ofE4Enum",
            "__ZN6Line2D9ptSegDistE7Point2D",
            "__ZN8EntityFX24f_particleTextureJitterXEv",
            "__ZN17ConcurrentHashMap6valuesEv",
            "__ZN6Window16getWarningStringEv",
            "__ZN9WorldInfo13getSizeOnDiskEv",
            "__ZN18TransformAttribute12getTransformEv",
            "__ZN16AbstractSelector17implCloseSelectorEv",
            "__ZN6Unsafe34compareAndExchangeReferenceReleaseE6ObjectlS0_S0_",
            "__ZN9JsonToken8f_NUMBEREv",
            "__ZN5Block24onBlockDestroyedByPlayerE5World8BlockPos11IBlockState",
            "__ZN5Image17f_SCALE_REPLICATEEv",
            "__ZN11WorldClient13makeFireworksEdddddd14NBTTagCompound",
            "__ZN5Chunk13populateChunkE14IChunkProviderS0_ii",
            "__ZN10ByteBuffer3getEi5arr_B",
            "__ZN6Entity9playSoundE6Stringff",
            "__ZN7Pattern7matchesE6String12CharSequence",
            "__ZN9Component11imageUpdateE5Imageiiiii",
            "__ZN6Unsafe21weakCompareAndSetCharE6Objectlcc",
            "__ZN5Class17getCanonicalName0Ev",
            "__ZN8TimeUnit13f_NANOSECONDSEv",
            "__ZN11CombatEntry12func_94562_gEv",
            "__ZN10EnumFacing13f_NAME_LOOKUPEv",
            "__ZN16EnumFacing_Plane5applyE10EnumFacing",
            "__ZN16EntityLivingBase14onLivingUpdateEv",
            "__ZN20ComponentOrientation15f_LEFT_TO_RIGHTEv",
            "__ZN17DateFormatSymbols21f_PATTERN_MILLISECONDEv",
            "__ZN16InputMethodEvent20f_INPUT_METHOD_FIRSTEv",
            "__ZN13DecimalFormat23getBigIntegerMultiplierEv",
            "__ZN11FormatStyle7f_SHORTEv",
            "__ZN19Dialog_ModalityType16f_DOCUMENT_MODALEv",
            "__ZN17DropTargetContext27getCurrentDataFlavorsAsListEv",
            "__ZN11FontMetrics5myFRCE8Graphics",
            "__ZN26AbstractQueuedSynchronizer8toStringEv",
            "__ZN5Frame29getAbstractTypeFromDescriptorE11SymbolTable6Stringi",
            "__ZN10LongBuffer9duplicateEv",
            "__ZN15MapItemRenderer15clearLoadedMapsEv",
            "__ZN12DamageSource9getEntityEv",
            "__ZN8UserList12writeChangesEv",
            "__ZN17ObjectStreamClass14f_numObjFieldsEv",
            "__ZN11ClassLoader22checkCreateClassLoaderEv",
            "__ZN9ZoneRules14nextTransitionE7Instant",
            "__ZN29BoundMethodHandle_Specializer19f_TN_COPY_NO_EXTENDEv",
            "__ZN11Rectangle2D11f_OUT_RIGHTEv",
            "__ZN6Locale9f_ITALIANEv",
            "__ZN6Random7doublesEdd",
            "__ZN8MapColor13f_purpleColorEv",
            "__ZN9WorldType14getWorldTypeIDEv",
            "__ZN6Reader13markSupportedEv",
            "__ZN27S11PacketSpawnExperienceOrb6f_posZEv",
            "__ZN4Long8hashCodeEl",
            "__ZN12FocusManager12f_focusOwnerEv",
            "__ZN7TreeSet7headSetE6Objectb",
            "__ZN7Wrapper12f_emptyArrayEv",
            "__ZN13MethodVisitor19visitTypeAnnotationEi8TypePath6Stringb",
            "__ZN10ByteBuffer5sliceEv",
            "__ZN12PotionEffect8toStringEv",
            "__ZN20NetHandlerPlayClient20handleSignEditorOpenE23S36PacketSignEditorOpen",
            "__ZN8Duration3getE12TemporalUnit",
            "__ZN12GameSettings22f_advancedItemTooltipsEv",
            "__ZN24C13PacketPlayerAbilities15setInvulnerableEb",
            "__ZN16EnumBorderStatus7valueOfE6String",
            "__ZN19System_Logger_Level6f_INFOEv",
            "__ZN17ObjectStreamClass13f_serializeExEv",
            "__ZN5World14f_entitiesByIdEv",
            "__ZN18EnumChatFormatting8f_ITALICEv",
            "__ZN11Enchantment14f_luckOfTheSeaEv",
            "__ZN18ScopedMemoryAccess23getByteVolatileInternalE24ScopedMemoryAccess_Scope6Objectl",
            "__ZN8Graphics9drawImageE5Imageiiiiiiii5Color13ImageObserver",
            "__ZN5Debug11getInstanceE6StringS0_",
            "__ZN11SymbolTable12f_entryCountEv",
            "__ZN23BlockRendererDispatcher15f_chestRendererEv",
            "__ZN12LazyLoadBase10f_isLoadedEv",
            "__ZN26ThreadLocal_ThreadLocalMap17getEntryAfterMissE11ThreadLocali32ThreadLocal_ThreadLocalMap_Entry",
            "__ZN7TreeMap13descendingMapEv",
            "__ZN12ModuleWriter9f_exportsEv",
            "__ZN20NetHandlerPlayClient17handleCollectItemE20S0DPacketCollectItem",
            "__ZN14BufferStrategy15getCapabilitiesEv",
            "__ZN8Profiler14f_profilingMapEv",
            "__ZN13WorldGenTrees13func_181652_aE5Worldi8BlockPos10EnumFacing",
            "__ZN5oatpp4data5share16StringKeyLabelCIC1EPKc",
            "__ZN19ChunkProviderClient11unloadChunkEii",
            "__ZN24EventFilter_FilterAction8f_ACCEPTEv",
            "__ZN10Permission23newPermissionCollectionEv",
            "__ZN10TimerQueue11f_classLockEv",
            "__ZN6Unsafe13loadLoadFenceEv",
            "__ZN15MinecraftServer8f_loggerEv",
            "__ZN12EntityPlayer10displayGuiE18IInteractionObject",
            "__ZN18DirectMethodHandle11getFunctionEh",
            "__ZN12DamageSource19setDamageIsAbsoluteEv",
            "__ZN17Rectangle2D_Float3f_xEv",
            "__ZN10EventQueue16isDispatchThreadEv",
            "__ZN16AbstractSelector13cancelledKeysEv",
            "__ZN9Component14getOpaqueShapeEv",
            "__ZN24PageAttributes_MediaType10f_I_ISO_B8Ev",
            "__ZN6Entity13isEntityEqualES_",
            "__ZN4Menu14handleShortcutE8KeyEvent",
            "__ZN6Parsed17resolveDateFieldsEv",
            "__ZN20AbstractSelectionKey9f_invalidEv",
            "__ZN16HashMap_TreeNode14removeTreeNodeE7HashMap22HashMap_Node_interfaceb",
            "__ZN9Minecraft16f_field_175613_BEv",
            "__ZN5World11tickUpdatesEb",
            "__ZN10BigDecimal20longCompareMagnitudeEll",
            "__ZN20UrlDeserializedState10f_protocolEv",
            "__ZN14EntityFireball16attackEntityFromE12DamageSourcef",
            "__ZN13FieldPosition11setEndIndexEi",
            "__ZN10BigDecimal3addES_11MathContext",
            "__ZN14NBTTagCompound7readKeyE9DataInput14NBTSizeTracker",
            "__ZN7Instant5minusEl12TemporalUnit",
            "__ZN11SoundSystem16CommandLoadSoundE11FilenameURL",
            "__ZN5Class11f_SYNTHETICEv",
            "__ZN12EntityLiving13interactFirstE12EntityPlayer",
            "__ZN17ObjectStreamClass8getFieldE6String5Class",
            "__ZN18ObjectOutputStream13replaceObjectE6Object",
            "__ZN6Unsafe9getObjectE6Objectl",
            "__ZN8Calendar10f_THURSDAYEv",
            "__ZN6Entity16setOutsideBorderEb",
            "__ZN9JsonArray15getAsBigDecimalEv",
            "__ZN7HashMap6removeE6ObjectS0_",
            "__ZN10Scoreboard25f_scoreObjectiveCriteriasEv",
            "__ZN14EntityPlayerMP15getNextWindowIdEv",
            "__ZN10DataFlavor13writeExternalE12ObjectOutput",
            "__ZN10MemberName12getModifiersEv",
            "__ZN13NumericShaper9f_BENGALIEv",
            "__ZN18S0BPacketAnimation11getEntityIDEv",
            "__ZN14BufferStrategy7disposeEv",
            "__ZN7Library4playE6Source",
            "__ZN12PacketBuffer10setBooleanEib",
            "__ZN20DecimalFormatSymbols18f_patternSeparatorEv",
            "__ZN14TileEntitySign9getPlayerEv",
            "__ZN11ChronoField14rangeRefinedByE16TemporalAccessor",
            "__ZN5oatpp3web6server3api8Endpoint12createSharedERKNSt3__110shared_ptrINS1_18HttpRequestHandlerEEERKNS4_8functionIFNS5_INS3_4InfoEEEvEEE",
            "__ZN5oatpp5async17AbstractCoroutine7waitForERKNSt3__16chrono8durationIxNS2_5ratioILl1ELl1000000EEEEE",
            "__ZN8MenuItem11getShortcutEv",
            "__ZN18PlayerProfileCache12f_dateFormatEv",
            "__ZN14PixelConverter10f_instanceEv",
            "__ZN19FormalTypeParameter6acceptE15TypeTreeVisitor",
            "__ZN21AbstractStringBuilder15appendCodePointEi",
            "__ZN19NumericShaper_Range16f_EASTERN_ARABICEv",
            "__ZN4UUID8hashCodeEv",
            "__ZN9VarHandle8toStringEv",
            "__ZN18DirectMethodHandle9nullCheckE6Object",
            "__ZN16EntityLivingBase10setJumpingEb",
            "__ZN12NamedPackage8locationEv",
            "__ZN5Event10f_MOUSE_UPEv",
            "__ZN19DropTargetDropEvent27getCurrentDataFlavorsAsListEv",
            "__ZN17MutableBigInteger10modInverseES_",
            "__ZN6Font2D17getPostscriptNameEv",
            "__ZN18ForwardingMultimap3putE6ObjectS0_",
            "__ZN8KeyEvent22f_VK_JAPANESE_HIRAGANAEv",
            "__ZN10JsonReader10setLenientEb",
            "__ZN10AtomicLong13compareAndSetEll",
            "__ZN12EntityPlayer11f_foodStatsEv",
            "__ZN17StackTraceElement8hashCodeEv",
            "__ZN18ScopedMemoryAccess22getByteAcquireInternalE24ScopedMemoryAccess_Scope6Objectl",
            "__ZN15AttributeValues13setForegroundE5Paint",
            "__ZN18ScopedMemoryAccess23putIntUnalignedInternalE24ScopedMemoryAccess_Scope6Objectlib",
            "__ZN10AppContext5f_logEv",
            "__ZN12ItemRenderer13func_178108_aEf18TextureAtlasSprite",
            "__ZN24PageAttributes_MediaType5f_B10Ev",
            "__ZN20NetHandlerPlayClient20handleEntityMetadataE23S1CPacketEntityMetadata",
            "__ZN19System_Logger_Level10f_severityEv",
            "__ZN4UUID8toStringEv",
            "__ZN8GenLayer24biomesEqualOrMesaPlateauEii",
            "__ZN7Polygon12getCrossingsEdddd",
            "__ZN6Entity10f_prevPosZEv",
            "__ZN20S0CPacketSpawnPlayer3f_zEv",
            "__ZN5Block8onLandedE5World6Entity",
            "__ZN5Image23getAccelerationPriorityEv",
            "__ZN6Parsed8f_chronoEv",
            "__ZN15IndexColorModel11getAllValidEv",
            "__ZN38ObjectInputStream_BlockDataInputStream9skipBytesEi",
            "__ZN20PlatformLogger_Level17f_SEVERITY_FINESTEv",
            "__ZN12EntityLiving14canAttackClassE5Class",
            "__ZN6Unsafe30weakCompareAndSetObjectAcquireE6ObjectlS0_S0_",
            "__ZN3URI4hashEi6String",
            "__ZN19DragSourceDragEvent15f_targetActionsEv",
            "__ZN18ArrayTypeSignature4makeE13TypeSignature",
            "__ZN11PerfCounter3setEl",
            "__ZN7Matcher20hasTransparentBoundsEv",
            "__ZN10EntityItem17readEntityFromNBTE14NBTTagCompound",
            "__ZN31ObjectOutputStream_PutFieldImpl3putE6Stringc",
            "__ZN6Entity15getCollisionBoxES_",
            "__ZN10Properties8entrySetEv",
            "__ZN12EntityLiving15f_canPickUpLootEv",
            "__ZN13Attribute_Set16f_SIZE_INCREMENTEv",
            "__ZN20NetHandlerPlayClient25handleScoreboardObjectiveE28S3BPacketScoreboardObjective",
            "__ZN9Character27f_INITIAL_QUOTE_PUNCTUATIONEv",
            "__ZN18ScopedMemoryAccess12putIntOpaqueE24ScopedMemoryAccess_Scope6Objectli",
            "__ZN11SymbolTable16addConstantClassE6String",
            "__ZN12EntityPlayer17canTriggerWalkingEv",
            "__ZN26ServerConfigurationManager16getBannedPlayersEv",
            "__ZN16GraphicAttribute17f_CENTER_BASELINEEv",
            "__ZN12EntityLiving12getNavigatorEv",
            "__ZN17ObjectStreamField7getNameEv",
            "__ZN6Entity23f_entityRiderPitchDeltaEv",
            "__ZN16NetworkInterface16getByInetAddressE11InetAddress",
            "__ZN5Event6f_PGDNEv",
            "__ZN7Matcher10replaceAllE8Function",
            "__ZN12RenderGlobal13func_181563_aE13AxisAlignedBBiiii",
            "__ZN25ModuleDescriptor_Provides9compareToES_",
            "__ZN11CharMatcher19precomputedPositiveEi6BitSet6String",
            "__ZN20NetHandlerPlayServer10f_hasMovedEv",
            "__ZN32RegistryNamespacedDefaultedByKey11validateKeyEv",
            "__ZN50ObjectStreamClass_DeserializationConstructorsCache3getE27ObjectStreamField_interface",
            "__ZN14WorldGenerator13func_175904_eEv",
            "__ZNK5oatpp3web8protocol4http8incoming7Request25transferBodyToStreamAsyncERKNSt3__110shared_ptrINS_4data6stream12OutputStreamEEE",
            "__ZN11ThreadGroup13f_maxPriorityEv",
            "__ZN12GameSettings13func_181147_eEv",
            "__ZN10UniqueName9compareToES_",
            "__ZN17MutableBigInteger12inverseMod32Ei",
            "__ZN19GameRules_ValueType17f_NUMERICAL_VALUEEv",
            "__ZN24PageAttributes_MediaType10f_I_ISO_C3Ev",
            "__ZN7Wrapper16forPrimitiveTypeEc",
            "__ZN13JsonPrimitive8deepCopyEv",
            "__ZN18OutputStreamWriter5writeE5arr_Cii",
            "__ZN8UserList9getValuesEv",
            "__ZN24ClassSpecializer_Factory23loadSpeciesDataFromCodeE5Class",
            "__ZN13NumericShaper17shapeContextuallyE5arr_Cii19NumericShaper_Range",
            "__ZN26AbstractQueuedSynchronizer13releaseSharedEi",
            "__ZN5Frame15f_CONSTANT_KINDEv",
            "__ZN8Provider5mergeE6ObjectS0_10BiFunction",
            "__ZN9ZoneRules13isValidOffsetE13LocalDateTime10ZoneOffset",
            "__ZN11InetAddress19f_preferIPv6AddressEv",
            "__ZN5oatpp7network3tcp6server18ConnectionProviderC2ERKNS0_7AddressEb",
            "__ZN11WorldServer18f_updateEntityTickEv",
            "__ZN10BigDecimal10floatValueEv",
            "__ZN14NetworkManager14getIsencryptedEv",
            "__ZN10FileSystem19getLastModifiedTimeE4File",
            "__ZN18BlockModelRenderer11renderModelE12IBlockAccess11IBakedModel11IBlockState8BlockPos13WorldRendererb",
            "__ZN8Calendar10setLenientEb",
            "__ZN18PlayerCapabilities11getFlySpeedEv",
            "__ZN6Unsafe7putLongEll",
            "__ZN6Unsafe3c2sEc",
            "__ZN5oatpp7network3tcp6server18ConnectionProvider4stopEv",
            "__ZN6Entity11setVelocityEddd",
            "__ZN10ClassValue6getMapE5Class",
            "__ZN12BiomeGenBase16f_height_DefaultEv",
            "__ZN6Reader4readE5arr_Cii",
            "__ZN9Component13getBackgroundEv",
            "__ZN7TreeMap6valuesEv",
            "__ZN13EntityAgeable14setScaleForAgeEb",
            "__ZN21AbstractStringBuilder11appendCharsE6Stringii",
            "__ZN20NetHandlerPlayClient8f_loggerEv",
            "__ZN6Entity11canBePushedEv",
            "__ZN9VarHandle15storeStoreFenceEv",
            "__ZN5oatpp5utils10conversion10int64ToStrEx",
            "__ZN20MethodHandles_Lookup11f_ALL_MODESEv",
            "__ZN13JobAttributes8toStringEv",
            "__ZN24PageAttributes_MediaType13f_ENV_MONARCHEv",
            "__ZN14SpawnerAnimals21findChunksForSpawningE11WorldServerbbb",
            "__ZN19NumericShaper_Range14f_MYANMAR_SHANEv",
            "__ZN10Scoreboard29getObjectiveDisplaySlotNumberE6String",
            "__ZN17AccessibleContext22getAccessibleComponentEv",
            "__ZN20MethodHandles_Lookup13f_IMPL_LOOKUPEv",
            "__ZN10BigInteger19primitiveRightShiftE5arr_Iii",
            "__ZN11SymbolTable25addConstantIntegerOrFloatEiii",
            "__ZN24PageAttributes_MediaType19f_I_NA_7X9_ENVELOPEEv",
            "__ZN22ReentrantReadWriteLock18getWaitQueueLengthE9Condition",
            "__ZN8MapColor12f_colorIndexEv",
            "__ZN7Library9getVolumeE6String",
            "__ZN7ByteBuf15markReaderIndexEv",
            "__ZN5Frame18f_outputStackStartEv",
            "__ZN17BoundMethodHandle23f_FIELD_COUNT_THRESHOLDEv",
            "__ZN7Village19updateNumIronGolemsEv",
            "__ZN8KeyEvent21f_VK_DEAD_DOUBLEACUTEEv",
            "__ZN12CalendarDate8f_millisEv",
            "__ZN8Provider11f_prngAlgosEv",
            "__ZN14StatisticsFile11f_statsFileEv",
            "__ZN20FocusTraversalPolicy16getLastComponentE9Container",
            "__ZN24ClassSpecializer_Factory18f_SPECIES_DATA_SIGEv",
            "__ZN13DecimalFormat17getPositiveSuffixEv",
            "__ZN24SunDropTargetContextPeer12dropCompleteEb",
            "__ZN17DateFormatSymbols14setZoneStringsE16String_interface",
            "__ZN20NetHandlerPlayServer17getNetworkManagerEv",
            "__ZN9Minecraft12f_systemTimeEv",
            "__ZN12EntitySenses6canSeeE6Entity",
            "__ZN20MethodHandles_Lookup4bindE6Object6String10MethodType",
            "__ZN29PixelToParallelogramConverter8fillRectE13SunGraphics2Diiii",
            "__ZN9TimerTask11f_SCHEDULEDEv",
            "__ZN12RoundingMode7valueOfEi",
            "__ZN13PlayerManager20filterChunkLoadQueueE14EntityPlayerMP",
            "__ZN11SurfaceType16f_DESC_ANY_PAINTEv",
            "__ZN14EntityPlayerMP20updateBiomesExploredEv",
            "__ZN6String11checkOffsetEii",
            "__ZN7Library7messageE6String",
            "__ZN9BlockBush23getCollisionBoundingBoxE5World8BlockPos11IBlockState",
            "__ZN10ChronoUnit6f_ERASEv",
            "__ZN4Gson10getAdapterE9TypeToken",
            "__ZN4Perf10attachImplE6Stringii",
            "__ZN4Font6decodeE6String",
            "__ZN5Month6f_JUNEEv",
            "__ZN6String10startsWithES_",
            "__ZN10JsonReader27f_PEEKED_SINGLE_QUOTED_NAMEEv",
            "__ZN25Class_EnclosingMethodInfo12f_descriptorEv",
            "__ZN13BufferedImage19f_TYPE_INT_ARGB_PREEv",
            "__ZN6Locale11getInstanceE10BaseLocale16LocaleExtensions",
            "__ZN5Event12f_MOUSE_DRAGEv",
            "__ZN13AtomicBoolean9getOpaqueEv",
            "__ZN8KeyEvent17f_VK_OPEN_BRACKETEv",
            "__ZN5oatpp7network3tcp6server18ConnectionProviderD1Ev",
            "__ZN19S03PacketTimeUpdate17getTotalWorldTimeEv",
            "__ZN10MouseEvent13f_MOUSE_WHEELEv",
            "__ZN13SunGraphics2D13f_invalidpipeEv",
            "__ZN11ModuleLayer7parentsEv",
            "__ZN9ArrayList8hashCodeEv",
            "__ZN6Region15getIntersectionES_",
            "__ZN7Matcher6searchEi",
            "__ZN20StructureBoundingBox28getComponentToAddBoundingBoxEiiiiiiiii10EnumFacing",
            "__ZN5Chunk13setBlockStateE8BlockPos11IBlockState",
            "__ZN6Source18millisecondsPlayedEv",
            "__ZNK5oatpp6parser4json7mapping12ObjectMapper4readERNS0_5CaretEPKNS_4data7mapping4type4TypeE",
            "__ZN6Font2D16f_strikeCacheMaxEv",
            "__ZN13IsoChronology11dateYearDayEii",
            "__ZN6Locale18f_localeExtensionsEv",
            "__ZN13NumericShaper6f_THAIEv",
            "__ZN9Component26getAccessibleIndexInParentEv",
            "__ZN12NumberFormat6formatEd",
            "__ZN13TextAttribute19f_SUPERSCRIPT_SUPEREv",
            "__ZN10NBTTagList4copyEv",
            "__ZN21AbstractStringBuilder6appendE5arr_Cii",
            "__ZN12EntityPlayer14f_capabilitiesEv",
            "__ZN16Joiner_MapJoiner4joinE8Iterator",
            "__ZN12PotionEffect28writeCustomPotionEffectToNBTE14NBTTagCompound",
            "__ZN17ObjectInputStream14readSerialDataE6Object17ObjectStreamClass",
            "__ZN11SurfaceType18f_DESC_BYTE_BINARYEv",
            "__ZN9Character18offsetByCodePointsE5arr_Ciiii",
            "__ZN11ModuleLayer17f_servicesCatalogEv",
            "__ZN8KeyEvent25getExtendedKeyCodeForCharEi",
            "__ZN7TreeMap8floorKeyE6Object",
            "__ZN7TreeSet7isEmptyEv",
            "__ZN9PopupMenu9addNotifyEv",
            "__ZN15RenderingEngine12feedConsumerE12PathIterator14PathConsumer2D",
            "__ZN13BreakIterator19createBreakInstanceE6Localei",
            "__ZN17AccessibleContext45f_ACCESSIBLE_TABLE_COLUMN_DESCRIPTION_CHANGEDEv",
            "__ZN8MimeType12readExternalE11ObjectInput",
            "__ZN10BigInteger14byteValueExactEv",
            "__ZN14TreeMap_KeySet9pollFirstEv",
            "__ZN13MenuComponent19getComponentFactoryEv",
            "__ZN11CharMatcher10retainFromE12CharSequence",
            "__ZN12PacketBuffer18readUnsignedMediumEv",
            "__ZN13NumericShaper12f_ARABIC_KEYEv",
            "__ZN14NBTTagCompound9getDoubleE6String",
            "__ZN32ChunkCompileTaskGenerator_Status7valueOfE6String",
            "__ZN24ModuleDescriptor_Exports8hashCodeEv",
            "__ZN6Unsafe27getAndBitwiseXorCharReleaseE6Objectlc",
            "__ZN11SoundSystem7fadeOutE6StringS0_l",
            "__ZN11CharMatcher11replaceFromE12CharSequencec",
            "__ZN9ItemStack10onCraftingE5World12EntityPlayeri",
            "__ZN8Graphics10drawStringE6Stringii",
            "__ZN17AccessibleContext18f_nativeAXResourceEv",
            "__ZN10CharBuffer3getEi",
            "__ZN17StackTraceElement22initStackTraceElementsE27StackTraceElement_interface9Throwable",
            "__ZN3URI10f_userInfoEv",
            "__ZN22ResourcePackRepository20getResourcePackFilesEv",
            "__ZN9Component19createVolatileImageEii17ImageCapabilities",
            "__ZN6Thread13nextThreadNumEv",
            "__ZN20S0EPacketSpawnObject3f_xEv",
            "__ZN8EntityFX17canAttackWithItemEv",
            "__ZN14CharsetEncoder27f_unmappableCharacterActionEv",
            "__ZN17GraphicsPrimitive10f_uniqueIDEv",
            "__ZN19CrashReportCategory21appendToStringBuilderE13StringBuilder",
            "__ZN10Proxy_Type7valueOfE6String",
            "__ZN10ByteVector8f_lengthEv",
            "__ZN20S29PacketSoundEffect4getXEv",
            "__ZN32ObjectStreamClass_FieldReflector8f_unsafeEv",
            "__ZN17StackTraceElement14isNativeMethodEv",
            "__ZN6Path2D9closePathEv",
            "__ZN20RendererLivingEntity18f_brightnessBufferEv",
            "__ZN7ByteBuf11readerIndexEv",
            "__ZN18ScopedMemoryAccess21putLongOpaqueInternalE24ScopedMemoryAccess_Scope6Objectll",
            "__ZN6Window15postWindowEventEi",
            "__ZN8Currency18f_specialCasesListEv",
            "__ZN13SunGraphics2D13f_fontMetricsEv",
            "__ZN33DropTarget_DropTargetAutoScroller15actionPerformedE11ActionEvent",
            "__ZN11SoundSystem12CommandPauseE6String",
            "__ZN9Extension4f_idEv",
            "__ZN13EntityTracker18addEntityToTrackerE6Entityiib",
            "__ZN12RenderGlobal21f_entityOutlineShaderEv",
            "__ZN18DirectMethodHandle9checkCastE6Object",
            "__ZN6Shader12deleteShaderEv",
            "__ZN6Unsafe12putReferenceE6ObjectlS0_",
            "__ZN5Frame16f_outputStackTopEv",
            "__ZN12GameSettings11f_chatWidthEv",
            "__ZN20NetHandlerPlayServer12processInputE14C0CPacketInput",
            "__ZN6Locale15getISO3LanguageEv",
            "__ZN8BanEntry13hasBanExpiredEv",
            "__ZN5Block6f_maxZEv",
            "__ZN12EntityPlayer11resetHeightEv",
            "__ZN10ZoneOffset2ofE6String",
            "__ZN24SunDropTargetContextPeer16getTargetActionsEv",
            "__ZN10FocusEvent12f_FOCUS_LOSTEv",
            "__ZN16URLStreamHandler6equalsE3URLS0_",
            "__ZN10NBTTagList9f_tagTypeEv",
            "__ZN12MethodWriter14f_sourceLengthEv",
            "__ZN12CalendarDate10addSecondsEi",
            "__ZN21AccessibleRelationSet11f_relationsEv",
            "__ZN42AbstractQueuedSynchronizer_ConditionObject8doSignalE40AbstractQueuedSynchronizer_ConditionNodeb",
            "__ZN10BigDecimal6divideE10BigIntegeriS0_iii",
            "__ZN15AffineTransform9_matroundEd",
            "__ZN15MinecraftServer11setInstanceEv",
            "__ZN22ResourcePackRepository24f_rprDefaultResourcePackEv",
            "__ZN10DataBuffer13f_TYPE_DOUBLEEv",
            "__ZN12NumberFormat18getIntegerInstanceE6Locale",
            "__ZN11EntityHorse18getTotalArmorValueEv",
            "__ZN16NetworkInterface20enumerationFromArrayE16Object_interface",
            "__ZN9Component4listE11PrintWriter",
            "__ZN8Vector4f6negateEv",
            "__ZN12MethodWriter6f_codeEv",
            "__ZN15CharsetProvider8charsetsEv",
            "__ZN13AtomicBoolean25compareAndExchangeReleaseEbb",
            "__ZN9Component9getCursorEv",
            "__ZN11SoundSystem12dequeueSoundE6StringS0_",
            "__ZN6Locale5cloneEv",
            "__ZN12EntityPlayer7setDeadEv",
            "__ZN15AffineTransform13setToRotationEdd",
            "__ZN6Unsafe20getAndBitwiseAndLongE6Objectll",
            "__ZN9FoodStats8addStatsE8ItemFood9ItemStack",
            "__ZN10Permission10checkGuardE6Object",
            "__ZN32ReentrantReadWriteLock_WriteLock6unlockEv",
            "__ZN15C03PacketPlayer11getRotatingEv",
            "__ZN15AccessibleState12f_MULTI_LINEEv",
            "__ZN6Cursor17f_E_RESIZE_CURSOREv",
            "__ZN13SunGraphics2D8f_transXEv",
            "__ZN15WorldGenBigTree13func_175904_eEv",
            "__ZN9ItemStack13copyItemStackES_",
            "__ZN22ModuleDescriptor_Opens9compareToES_",
            "__ZN24PageAttributes_MediaType4f_B7Ev",
            "__ZN21ChunkProviderSettings11f_lapisSizeEv",
            "__ZN13BufferedImage11getMinTileYEv",
            "__ZN22S08PacketPlayerPosLook4getYEv",
            "__ZN4File8canWriteEv",
            "__ZN20LambdaForm_BasicType8f_F_TYPEEv",
            "__ZN10JsonWriter4openEi6String",
            "__ZN20VarHandle_AccessType7valueOfE6String",
            "__ZN10BigDecimal25expandBigIntegerTenPowersEi",
            "__ZN13WorldRenderer16f_field_181677_fEv",
            "__ZN10Executable23getAnnotatedReturnType0E4Type",
            "__ZN6Random9nextFloatEv",
            "__ZN7Integer19resolveConstantDescE20MethodHandles_Lookup",
            "__ZN12CreativeTabs16f_tabDecorationsEv",
            "__ZN15AffineTransform5f_m11Ev",
            "__ZN12ConstantPool19getFieldAtIfLoaded0E6Objecti",
            "__ZN13LocalDateTime12getDayOfWeekEv",
            "__ZN7TreeMap18f_serialVersionUIDEv",
            "__ZN8Calendar15getTimeInMillisEv",
            "__ZN10EventQueue3popEv",
            "__ZN13BreakIterator4lastEv",
            "__ZN22S3FPacketCustomPayload14getChannelNameEv",
            "__ZN6Dialog4showEv",
            "__ZN6String11toUpperCaseEv",
            "__ZN18ItemInWorldManager11setGameTypeE22WorldSettings_GameType",
            "__ZN18TextureAtlasSprite6f_maxUEv",
            "__ZN11PrintStream10writeBytesE5arr_B",
            "__ZN11Dimension2D8getWidthEv",
            "__ZN38ObjectInputStream_BlockDataInputStream6refillEv",
            "__ZN28AbstractClassLoaderValue_Sub3keyEv",
            "__ZN24ReentrantContextProvider20getOrCreateReferenceE16ReentrantContext",
            "__ZN21Locale_IsoCountryCode17f_iso3166CodesMapEv",
            "__ZN8KeyEvent10f_VK_CLEAREv",
            "__ZN11AudioFormat11f_bigEndianEv",
            "__ZN22PatternSyntaxException9f_patternEv",
            "__ZN13ShaderManager17f_attribLocationsEv",
            "__ZN18ForwardingMultimap7entriesEv",
            "__ZN19VertexFormatElement15getElementCountEv",
            "__ZN8Provider29getDefaultSecureRandomServiceEv",
            "__ZN34ItemCameraTransforms_TransformType14f_THIRD_PERSONEv",
            "__ZN10UniqueName8hashCodeEv",
            "__ZN11ClassLoader4nameEv",
            "__ZN20VarHandle_AccessMode21f_GET_AND_SET_ACQUIREEv",
            "__ZN21Properties_LineReader8f_readerEv",
            "__ZN12EntityPlayer13updateItemUseE9ItemStacki",
            "__ZN13VolatileImage8getWidthEv",
            "__ZN8BlockPos18getAllInBoxMutableES_S_",
            "__ZN10SocketImpl4bindE11InetAddressi",
            "__ZN11RenderChunk13f_compileTaskEv",
            "__ZN9PopupMenu22constructComponentNameEv",
            "__ZN6Entity13getDistanceSqE8BlockPos",
            "__ZN15AffineTransform5scaleEdd",
            "__ZN6Entity20getVectorForRotationEff",
            "__ZN24LambdaForm_NamedFunction8toStringEv",
            "__ZN8MapColor14f_emeraldColorEv",
            "__ZN16SimpleDateFormat6formatE4Date12StringBuffer20Format_FieldDelegate",
            "__ZN8DrawPath17f_methodSignatureEv",
            "__ZN10JsonReader9isLenientEv",
            "__ZN10AppContext20f_mostRecentKeyValueEv",
            "__ZN10BaseLocale6f_hashEv",
            "__ZN13CommandObject23f_SET_LISTENER_POSITIONEv",
            "__ZN6Symbol24f_CONSTANT_METHODREF_TAGEv",
            "__ZN13MessageHeader11mergeHeaderE11InputStream",
            "__ZN13CommandObject15f_MOVE_LISTENEREv",
            "__ZN15ScorePlayerTeam31setSeeFriendlyInvisiblesEnabledEb",
            "__ZN17WorldChunkManager17getBiomeGeneratorE8BlockPos12BiomeGenBase",
            "__ZN19ChunkProviderServer13f_chunkLoaderEv",
            "__ZN12EntityPlayer9isWearingE20EnumPlayerModelParts",
            "__ZN11SurfaceType15f_DESC_INT_ARGBEv",
            "__ZN15InventoryPlayer14closeInventoryE12EntityPlayer",
            "__ZN5oatpp4data6buffer14InlineReadData6setEofEv",
            "__ZN15IndexColorModel14getValidPixelsEv",
            "__ZN12MethodWriter13putMethodInfoE10ByteVector",
            "__ZN21AbstractStringBuilder8getBytesE5arr_Bih",
            "__ZN19ChunkProviderServer13f_id2ChunkMapEv",
            "__ZN16IntegratedServer16getDataDirectoryEv",
            "__ZN7Toolkit12prepareImageE5Imageii13ImageObserver",
            "__ZN14TextureManager11loadTextureE16ResourceLocation14ITextureObject",
            "__ZN26ServerConfigurationManager13func_181057_vEv",
            "__ZN14EntityPlayerSP23closeScreenAndDropStackEv",
            "__ZN16EntityLivingBase13f_maxHurtTimeEv",
            "__ZN21AbstractStringBuilder6appendE12CharSequenceii",
            "__ZN29JobAttributes_DestinationType8f_I_FILEEv",
            "__ZN12EntityPlayer4jumpEv",
            "__ZN18ScopedMemoryAccess21getAndSetFloatReleaseE24ScopedMemoryAccess_Scope6Objectlf",
            "__ZN28AbstractInterruptibleChannel13f_interruptorEv",
            "__ZN12DamageSource17causeThornsDamageE6Entity",
            "__ZN3URL8hashCodeEv",
            "__ZN10EventQueue15f_HIGH_PRIORITYEv",
            "__ZN6String8getCharsEii5arr_Ci",
            "__ZN12GuiSpectator16f_field_175268_gEv",
            "__ZN29PixelToParallelogramConverter4drawE13SunGraphics2D5Shape",
            "__ZN12SoundHandler16playDelayedSoundE6ISoundi",
            "__ZN22C17PacketCustomPayload14getChannelNameEv",
            "__ZN17ObjectStreamClass15f_deserializeExEv",
            "__ZN12PacketBuffer5orderEv",
            "__ZN10BigDecimal6divideES_11MathContext",
            "__ZN19EnumEnchantmentType7f_ARMOREv",
            "__ZN13WorldGenTrees16f_field_181653_aEv",
            "__ZN11InputStream4markEi",
            "__ZN5Chunk11getLightForE12EnumSkyBlock8BlockPos",
            "__ZN9TextStyle8f_NARROWEv",
            "__ZN5Float14f_MAX_EXPONENTEv",
            "__ZN10ByteBuffer8putShortEis",
            "__ZN21LightweightDispatcher7disposeEv",
            "__ZN17S0FPacketSpawnMob12getHeadPitchEv",
            "__ZN10LambdaForm6equalsES_",
            "__ZN20LambdaForm_BasicType8f_I_TYPEEv",
            "__ZN29ObjectInputStream_HandleTable9setObjectEi6Object",
            "__ZN17ObjectInputStream14f_serialFilterEv",
            "__ZN15AttributeValues12getTransformEv",
            "__ZN6Unsafe21checkWritebackEnabledEv",
            "__ZN32Component_BaselineResizeBehavior18f_CONSTANT_DESCENTEv",
            "__ZN10SocketImpl5resetEv",
            "__ZN11ShortBuffer4markEv",
            "__ZN5oatpp5async16CoroutineStarterC1EOS1_",
            "__ZN11EntityHorse15f_rearingAmountEv",
            "__ZN9Component9getBoundsE9Rectangle",
            "__ZN18ScopedMemoryAccess22copySwapMemoryInternalE24ScopedMemoryAccess_ScopeS0_6ObjectlS1_lll",
            "__ZN22S1FPacketSetExperience13func_149397_cEv",
            "__ZN10DelayQueue4pollEv",
            "__ZN8TimeUnit10f_secRatioEv",
            "__ZN8KeyEvent15f_VK_DEAD_GRAVEEv",
            "__ZN20Locale_FilteringMode24f_REJECT_EXTENDED_RANGESEv",
            "__ZN18ClassCastException18f_serialVersionUIDEv",
            "__ZN12GameSettings10f_guiScaleEv",
            "__ZN14WorldSavedData9markDirtyEv",
            "__ZN13Configuration14targetPlatformEv",
            "__ZN15AttributeValues9getWeightEv",
            "__ZN6ZoneId6equalsE6Object",
            "__ZN26ServerConfigurationManager5f_opsEv",
            "__ZN20C11PacketEnchantItem14readPacketDataE12PacketBuffer",
            "__ZN19InventoryEnderChest14closeInventoryE12EntityPlayer",
            "__ZN6Potion26getAttributeModifierAmountEi17AttributeModifier",
            "__ZN15AccessibleState12f_SELECTABLEEv",
            "__ZN12ServerSocket10implAcceptEv",
            "__ZN5oatpp6parser4json7mapping12DeserializerC1ERKNSt3__110shared_ptrINS3_6ConfigEEE",
            "__ZN17DateFormatSymbols11writeObjectE18ObjectOutputStream",
            "__ZN8KeyEvent10f_VK_BEGINEv",
            "__ZN5World12isAreaLoadedEiiiiiib",
            "__ZN5Class19isAnnotationPresentES_",
            "__ZN6Entity12getSwimSoundEv",
            "__ZN10CodeSource10readObjectE17ObjectInputStream",
            "__ZN8Calendar8f_AUGUSTEv",
            "__ZN13JobAttributes9setCopiesEi",
            "__ZN10SocketImpl7getPortEv",
            "__ZN5World31isBlockIndirectlyGettingPoweredE8BlockPos",
            "__ZN22ResourceBundle_Control13getTimeToLiveE6String6Locale",
            "__ZN4Long9longValueEv",
            "__ZN23LongSerializationPolicy7valueOfE6String",
            "__ZN20MethodHandles_Lookup11canBeCachedEh5Class10MemberName",
            "__ZN12GameSettings26f_keyBindTogglePerspectiveEv",
            "__ZN7Charset6encodeE6String",
            "__ZN14OffsetDateTime10minusWeeksEl",
            "__ZN6Joiner11f_separatorEv",
            "__ZN11SymbolTable12f_className_Ev",
            "__ZN6Source5f_XXXEv",
            "__ZN24ModuleDescriptor_Builder7f_opensEv",
            "__ZN10EventQueue16mergePaintEventsE10PaintEventS0_",
            "__ZN11MidiChannel6toLoopEbb",
            "__ZN7Handler21getExceptionTableSizeES_",
            "__ZN13LocalDateTime11isSupportedE12TemporalUnit",
            "__ZN6Entity10f_worldObjEv",
            "__ZN10LambdaForm13isTableSwitchEi",
            "__ZN15AttributeValues18setCharReplacementE16GraphicAttribute",
            "__ZN20DateTimeParseContext11endOptionalEb",
            "__ZN15CalendarBuilder15f_maxFieldIndexEv",
            "__ZN12IntSignature4makeEv",
            "__ZN18ScopedMemoryAccess29compareAndExchangeLongAcquireE24ScopedMemoryAccess_Scope6Objectlll",
            "__ZN16Joiner_MapJoiner8appendToE10Appendable8Iterator",
            "__ZN5Frame4pushEi",
            "__ZN21LightweightDispatcher18f_PROXY_EVENT_MASKEv",
            "__ZN8KeyEvent11f_VK_CANCELEv",
            "__ZN5World25getCollidingBoundingBoxesE6Entity13AxisAlignedBB",
            "__ZN12EntityPlayer15f_openContainerEv",
            "__ZN15S14PacketEntity8toStringEv",
            "__ZN12RoundingMode4f_UPEv",
            "__ZN11PointerInfo11getLocationEv",
            "__ZN5Field14isTrustedFinalEv",
            "__ZN5Label30f_FORWARD_REFERENCE_TYPE_SHORTEv",
            "__ZN11DataWatcher24getWatchableObjectStringEi",
            "__ZN15AffineTransform9rotate180Ev",
            "__ZN5Class7toClassE4Type",
            "__ZN5Chunk28updateSkylightNeighborHeightEiiii",
            "__ZN33ObjectInputStream_PeekInputStream4skipEl",
            "__ZN14ScoreObjective15f_theScoreboardEv",
            "__ZN9Clipboard7getNameEv",
            "__ZN18ScopedMemoryAccess15getByteVolatileE24ScopedMemoryAccess_Scope6Objectl",
            "__ZN9GuiButton4f_idEv",
            "__ZN10EnumAction5f_BOWEv",
            "__ZN8Splitter2onE7Pattern",
            "__ZN20LambdaForm_BasicType12f_I_TYPE_NUMEv",
            "__ZN12VertexBuffer7f_countEv",
            "__ZN15IndexColorModel7isValidEv",
            "__ZN37AttributedCharacterIterator_Attribute8hashCodeEv",
            "__ZN9Hashtable14getEnumerationEi",
            "__ZN32ConcurrentHashMap_CollectionView8toStringEv",
            "__ZN8Matrix4f5f_m21Ev",
            "__ZN5Label12f_lineNumberEv",
            "__ZN8MimeType12f_parametersEv",
            "__ZN10EventQueue24f_mostRecentKeyEventTimeEv",
            "__ZN15MouseWheelEvent22f_preciseWheelRotationEv",
            "__ZN5Color6f_cyanEv",
            "__ZN5Class12searchFieldsE15Field_interface6String",
            "__ZN9WorldInfo13setBorderSizeEd",
            "__ZN17SoundSystemLogger15printStackTraceE9Exceptioni",
            "__ZN17EnumParticleTypes13f_SMOKE_LARGEEv",
            "__ZN12EntityPlayer8f_xpSeedEv",
            "__ZN6Font2D10f_fontRankEv",
            "__ZN12PacketBuffer10writeBytesE10ByteBuffer",
            "__ZN20GameSettings_Options12f_CHAT_COLOREv",
            "__ZN12RenderGlobal16f_locationSunPngEv",
            "__ZN5oatpp3web6server3api8Endpoint4Info12createSharedEv",
            "__ZN10FileSystem12canonicalizeE6String",
            "__ZN14TreeMap_KeySet3f_mEv",
            "__ZN13URLConnection16f_defaultCachingEv",
            "__ZN21ChunkProviderSettings17f_upperLimitScaleEv",
            "__ZN5oatpp6parser5Caret11getDataSizeEv",
            "__ZN5oatpp4data7mapping4type7__class7Float647getTypeEv",
            "__ZN15LocaleResources18getDateTimePatternE6StringS0_iS0_",
            "__ZN13PlayerManager17hasPlayerInstanceEii",
            "__ZN18AccessibleStateSet8f_statesEv",
            "__ZN8KeyEvent10f_scancodeEv",
            "__ZN8KeyEvent8f_VK_F23Ev",
            "__ZN9Minecraft8getProxyEv",
            "__ZN20S30PacketWindowItems14readPacketDataE12PacketBuffer",
            "__ZN20NetHandlerPlayClient20handleHeldItemChangeE23S09PacketHeldItemChange",
            "__ZN7Reifier29visitSimpleClassTypeSignatureE24SimpleClassTypeSignature",
            "__ZN16LambdaFormEditor22f_COLLECT_ARGS_TO_VOIDEv",
            "__ZN11SoundSystem19changeDopplerFactorEf",
            "__ZN9ArrayList14ensureCapacityEi",
            "__ZN13ImmutableList6addAllEi10Collection",
            "__ZN12GlyphMetrics10f_advanceYEv",
            "__ZN13URLConnection7getDateEv",
            "__ZN14CharsetDecoder17isCharsetDetectedEv",
            "__ZN5Class15isDirectSubTypeES_",
            "__ZN10Executable12parameterizeE5Class",
            "__ZN12PacketBuffer8hashCodeEv",
            "__ZN12RoundingMode9f_oldModeEv",
            "__ZN13EntityHanging13func_174858_aEi",
            "__ZN15InvocationEvent11f_exceptionEv",
            "__ZN14EntityFishHook10entityInitEv",
            "__ZN19ChunkProviderServer12f_dummyChunkEv",
            "__ZN8TimeUnit11f_maxMicrosEv",
            "__ZN14MethodTypeForm9f_LF_LOOPEv",
            "__ZN10BigInteger6setBitEi",
            "__ZN15DataInputStream7readUTFE9DataInput",
            "__ZN21AbstractStringBuilder11lastIndexOfE6String",
            "__ZN3URI7getPortEv",
            "__ZN11ShaderGroup18f_listFramebuffersEv",
            "__ZN12BiomeGenBase16f_savannaPlateauEv",
            "__ZN13SunGraphics2D13getClipBoundsE9Rectangle",
            "__ZN8TimeUnit7f_scaleEv",
            "__ZN10Scoreboard12func_96513_cE15ScorePlayerTeam",
            "__ZN18S0BPacketAnimation15writePacketDataE12PacketBuffer",
            "__ZN12CreativeTabs15f_iconItemStackEv",
            "__ZN6Window14isModalBlockedEv",
            "__ZN5World20getWorldChunkManagerEv",
            "__ZN6Unsafe16putBooleanOpaqueE6Objectlb",
            "__ZN16EntityLivingBase14setAIMoveSpeedEf",
            "__ZN15DatagramChannel6socketEv",
            "__ZN11CrashReport13f_descriptionEv",
            "__ZN14HierarchyEvent11paramStringEv",
            "__ZN10EntityItem22setInfinitePickupDelayEv",
            "__ZN11SurfaceType9f_IntArgbEv",
            "__ZN17EnumParticleTypes19f_shouldIgnoreRangeEv",
            "__ZN20EnumPlayerModelParts17f_RIGHT_PANTS_LEGEv",
            "__ZN10Properties8containsE6Object",
            "__ZN19EntityLightningBolt12f_boltVertexEv",
            "__ZN26ServerConfigurationManager29updateTimeAndWeatherForPlayerE14EntityPlayerMP11WorldServer",
            "__ZN18ForwardingMultimap6equalsE6Object",
            "__ZN4Gson27f_generateNonExecutableJsonEv",
            "__ZN5Chunk15getLowestHeightEv",
            "__ZN11PrintStream7printlnEv",
            "__ZN12BiomeGenBase19getFloatTemperatureE8BlockPos",
            "__ZN6Unsafe20getAndAddLongAcquireE6Objectll",
            "__ZN9LocalDate10adjustIntoE8Temporal",
            "__ZN14ScoreObjective7getNameEv",
            "__ZN13Configuration14resolveAndBindE12ModuleFinder10Collection11PrintStream",
            "__ZN15InvocationEvent12f_dispatchedEv",
            "__ZN16ScaledResolution14f_scaledHeightEv",
            "__ZN14EntityRenderer14f_fogColorBlueEv",
            "__ZN13SoftReference3getEv",
            "__ZN16ModuleDescriptor16toNameAndVersionEv",
            "__ZN12PacketBuffer23readItemStackFromBufferEv",
            "__ZN9Component11createImageE13ImageProducer",
            "__ZN13FieldPosition7f_fieldEv",
            "__ZN11ActionEvent11f_modifiersEv",
            "__ZN14EntityPlayerMP11f_wasHungryEv",
            "__ZN15LambdaForm_Name8refersToE5Class6String",
            "__ZN16Team_EnumVisible7f_NEVEREv",
            "__ZN5oatpp4data6stream18BufferOutputStream11getCapacityEv",
            "__ZN9Component18isFocusTraversableEv",
            "__ZN13SunGraphics2D10setDevClipEiiii",
            "__ZN11EntityHorse8onUpdateEv",
            "__ZN5oatpp5async6ActionC1EPNS0_5ErrorE",
            "__ZN18DirectMethodHandle22f_NF_constructorMethodEv",
            "__ZN11SurfaceType8pixelForEi10ColorModel",
            "__ZN12ModelManager15f_modelProviderEv",
            "__ZN9Exception18f_serialVersionUIDEv",
            "__ZN7TreeMap4sizeEv",
            "__ZN10TextureMap14registerSpriteE16ResourceLocation",
            "__ZN12CalendarDate11setLeapYearEb",
            "__ZN16EntityLivingBase13isServerWorldEv",
            "__ZN34C19PacketResourcePackStatus_Action21f_SUCCESSFULLY_LOADEDEv",
            "__ZN12Thread_State9f_WAITINGEv",
            "__ZN10MethodType18dropParameterTypesEii",
            "__ZN13WorldRenderer13getColorIndexEi",
            "__ZN10PathFinder15f_nodeProcessorEv",
            "__ZN16ConstantPool_Tag9f_INVALIDEv",
            "__ZN8BlockPos8fromLongEl",
            "__ZN14OffsetDateTime8withHourEi",
            "__ZN9IntBuffer5orderEv",
            "__ZN18ScopedMemoryAccess19getAndAddIntReleaseE24ScopedMemoryAccess_Scope6Objectli",
            "__ZN16SimpleDateFormat22f_TAG_QUOTE_ASCII_CHAREv",
            "__ZN8Calendar13isNarrowStyleEi",
            "__ZN14TileEntitySign10writeToNBTE14NBTTagCompound",
            "__ZN14TreeMap_KeySet7tailSetE6Objectb",
            "__ZN22PasswordAuthentication11getUserNameEv",
            "__ZN18PlayerCapabilities18setPlayerWalkSpeedEf",
            "__ZN22StateTrackableDelegate22f_UNTRACKABLE_DELEGATEEv",
            "__ZN6Period13toTotalMonthsEv",
            "__ZN18EnumChatFormatting14f_LIGHT_PURPLEEv",
            "__ZN7Library4initEv",
            "__ZN7Wrapper9forceTypeE5ClassS0_",
            "__ZN18ObjectOutputStream5closeEv",
            "__ZN17DateTimeFormatter8toFormatEv",
            "__ZN5Float7f_BYTESEv",
            "__ZN13URLConnection15getOutputStreamEv",
            "__ZN17ImageCapabilities13isAcceleratedEv",
            "__ZN13URLConnection11skipForwardE11InputStreaml",
            "__ZN5oatpp6parser5Caret11isAtTextNCSEPKclb",
            "__ZN13TextAttribute17f_NUMERIC_SHAPINGEv",
            "__ZN13WorldSettings16enableBonusChestEv",
            "__ZN17ConcurrentHashMap19reduceEntriesToLongEl14ToLongFunctionl18LongBinaryOperator",
            "__ZN11MidiChannel14f_fadeOutMilisEv",
            "__ZN15MinecraftServer13setBuildLimitEi",
            "__ZN21S06PacketUpdateHealth18getSaturationLevelEv",
            "__ZN10ColorSpace10f_TYPE_HSVEv",
            "__ZN8TimeUnit12f_milliRatioEv",
            "__ZN10EventQueue13coalesceEventE8AWTEventi",
            "__ZN6Thread32f_threadLocalRandomSecondarySeedEv",
            "__ZN9Character15getNumericValueEc",
            "__ZN11EntityArrow8f_inDataEv",
            "__ZN9GuiButton11f_yPositionEv",
            "__ZN6String11toLowerCaseE6Locale",
            "__ZN8AWTEvent18f_FOCUS_EVENT_MASKEv",
            "__ZN10ByteBuffer4baseEv",
            "__ZN7Instant10readObjectE17ObjectInputStream",
            "__ZN17HttpURLConnection13getPermissionEv",
            "__ZN14InventoryBasic8setFieldEii",
            "__ZN17MutableBigInteger25f_KNUTH_POW2_THRESH_ZEROSEv",
            "__ZN14RenderingHints27f_VALUE_TEXT_ANTIALIAS_GASPEv",
            "__ZN16LambdaFormEditor19filterArgumentsFormEi10MethodType5arr_I",
            "__ZN15LambdaForm_Kind11f_GET_FLOATEv",
            "__ZN8KeyEvent12f_VK_KP_DOWNEv",
            "__ZN12DecimalStyle19convertNumberToI18NE6String",
            "__ZN15VillageDoorInfo16getInsideOffsetZEv",
            "__ZN4File11setReadOnlyEv",
            "__ZN11ChronoField6f_YEAREv",
            "__ZN26DecimalFormat_FastPathData23f_fractionalMaxIntBoundEv",
            "__ZN10TileEntity11setWorldObjE5World",
            "__ZN5oatpp3web8protocol4http8outgoing8Response27getConnectionUpgradeHandlerEv",
            "__ZN13AtomicInteger3f_UEv",
            "__ZN6Entity23moveToBlockPosAndAnglesE8BlockPosff",
            "__ZN7Matcher25appendExpandedReplacementE6String13StringBuilder",
            "__ZN13ImmutableList6removeEi",
            "__ZN14GuiAchievement8f_heightEv",
            "__ZN9Character9charValueEv",
            "__ZN18ObjectOutputStream10writeBytesE6String",
            "__ZN15MapData_MapInfo6updateEii",
            "__ZN28MinecraftProfileTexture_Type7valueOfE6String",
            "__ZN10FontFamily15getLocaleFamilyE6String",
            "__ZN9Component22f_windowFocusListenerKEv",
            "__ZN9FillSpans12f_primTypeIDEv",
            "__ZN11Constructor13getAnnotationE5Class",
            "__ZN13ZonedDateTime13getMonthValueEv",
            "__ZN8Calendar8completeEv",
            "__ZN20NetHandlerPlayServer20processPlayerDiggingE22C07PacketPlayerDigging",
            "__ZN14OffsetDateTime7getHourEv",
            "__ZN15MapItemRenderer10f_mapIconsEv",
            "__ZN17CommandBlockLogic14setTrackOutputEb",
            "__ZN15LambdaForm_Kind19f_VARHANDLE_INVOKEREv",
            "__ZN5Class15f_allPermDomainEv",
            "__ZN11SampleModel9getHeightEv",
            "__ZN5oatpp4data7mapping4type3DTO18Z__CLASS_TYPE_NAMEEv",
            "__ZN6Font2D9getStrikeE4Font15AffineTransformS1_ii",
            "__ZN9LocalDate7isEqualE15ChronoLocalDate",
            "__ZN9Component13setDropTargetE10DropTarget",
            "__ZN10MemberName8f_BRIDGEEv",
            "__ZN10FileSystem11setReadOnlyE4File",
            "__ZN13ShaderUniform7f_dirtyEv",
            "__ZN12VertexFormat13func_181719_fEv",
            "__ZN17S01PacketJoinGame12getWorldTypeEv",
            "__ZN9DigitList12f_isNegativeEv",
            "__ZN9Minecraft16displayGuiScreenE9GuiScreen",
            "__ZN15SecurityManager21checkPropertiesAccessEv",
            "__ZN16RectangularShape7getMaxXEv",
            "__ZN9GuiIngame17renderPlayerStatsE16ScaledResolution",
            "__ZN5Vec3i8toStringEv",
            "__ZN11EntityArrow19onCollideWithPlayerE12EntityPlayer",
            "__ZN15CalendarBuilder11f_MAX_FIELDEv",
            "__ZN3URI18f_decodedAuthorityEv",
            "__ZN14HierarchyEvent18f_ANCESTOR_RESIZEDEv",
            "__ZN7Integer9longValueEv",
            "__ZN6Entity16setCustomNameTagE6String",
            "__ZN4UUID11fromString1E6String",
            "__ZN9Hashtable15computeIfAbsentE6Object8Function",
            "__ZN17MutableBigInteger10rightShiftEi",
            "__ZN19C12PacketUpdateSign13processPacketE21INetHandlerPlayServer",
            "__ZN7EnumSet2ofE4EnumS0_S0_S0_",
            "__ZN18SunDropTargetEvent7consumeEv",
            "__ZN9ItemStack15canHarvestBlockE5Block",
            "__ZN20DecimalFormatSymbols20f_intlCurrencySymbolEv",
            "__ZN14GraphicsDevice18f_fullScreenWindowEv",
            "__ZN32ConcurrentHashMap_CollectionView11containsAllE10Collection",
            "__ZN9Component12f_minSizeSetEv",
            "__ZN16PhantomCleanable10isEnqueuedEv",
            "__ZN7Pattern8CIRangeUEii",
            "__ZN10FileSystem21f_useCanonPrefixCacheEv",
            "__ZN5World14canBlockSeeSkyE8BlockPos",
            "__ZN13ServiceLoader24findStaticProviderMethodE5Class",
            "__ZN7Library16f_normalChannelsEv",
            "__ZN29ObjectInputStream_HandleTable5clearEv",
            "__ZN5Class19getProtectionDomainEv",
            "__ZN17CommandBlockLogic14writeDataToNBTE14NBTTagCompound",
            "__ZN31PageAttributes_PrintQualityType7f_DRAFTEv",
            "__ZN5oatpp4data7mapping4type3AnyaSERKS3_",
            "__ZN13S34PacketMaps9f_mapMaxXEv",
            "__ZN9ZoneRules13getTransitionE13LocalDateTime",
            "__ZN14EntityRenderer15f_pointedEntityEv",
            "__ZN23S18PacketEntityTeleport10f_onGroundEv",
            "__ZN4File12getFreeSpaceEv",
            "__ZN12StreamThread7messageE6String",
            "__ZN10MemberName20f_IS_FIELD_OR_METHODEv",
            "__ZN11EntityHorse16setHasReproducedEb",
            "__ZN20DecimalFormatSymbols16getMinusSignTextEv",
            "__ZN29VertexFormatElement_EnumUsage7f_COLOREv",
            "__ZN5oatpp4data6stream22ConsistentOutputStream13writeAsStringEx",
            "__ZN14RenderingHints6removeE6Object",
            "__ZN12MethodWriter36f_lastRuntimeInvisibleTypeAnnotationEv",
            "__ZN12MethodWriter34f_lastRuntimeVisibleTypeAnnotationEv",
            "__ZN4Font10canDisplayEc",
            "__ZN14EntityPlayerSP17f_lastReportedYawEv",
            "__ZN13SunGraphics2D13f_STROKE_WIDEEv",
            "__ZN20DecimalFormatSymbols19f_monetarySeparatorEv",
            "__ZN9Component8paintAllE8Graphics",
            "__ZN15MinecraftServer18allowSpawnMonstersEv",
            "__ZN12EntityPlayer11damageArmorEf",
            "__ZN19ChunkProviderClient14f_chunkMappingEv",
            "__ZN10DataFlavor21f_selectionHtmlFlavorEv",
            "__ZN20InputMethodHighlight7f_styleEv",
            "__ZN6Locale19getLocaleExtensionsEv",
            "__ZN9Component13getColorModelEv",
            "__ZN13MenuComponent5f_accEv",
            "__ZN12VillageSiege13func_179867_aE8BlockPos",
            "__ZN10ValueRange17getLargestMinimumEv",
            "__ZN12EntityPlayer17f_prevChasingPosXEv",
            "__ZN11WorldServer14scheduleUpdateE8BlockPos5Blocki",
            "__ZN12MethodWriter29f_COMPUTE_MAX_STACK_AND_LOCALEv",
            "__ZN13AtomicInteger10getAcquireEv",
            "__ZN12BiomeGenBase8setColorEi",
            "__ZN14SurfaceManager15restoreContentsEv",
            "__ZN11Rectangle2D9f_OUT_TOPEv",
            "__ZN22WorldSettings_GameType11f_ADVENTUREEv",
            "__ZN20CurrencyNameProvider14getDisplayNameE6String6Locale",
            "__ZN8Material16f_requiresNoToolEv",
            "__ZN12GameSettings16f_snooperEnabledEv",
            "__ZN8LockCode7fromNBTE14NBTTagCompound",
            "__ZN23S36PacketSignEditorOpen15writePacketDataE12PacketBuffer",
            "__ZN14AnnotationType8toStringEv",
            "__ZN14EntityRenderer18f_rainSoundCounterEv",
            "__ZN4Edge11f_successorEv",
            "__ZN10MouseEvent4getYEv",
            "__ZN31EntityAITasks_EntityAITaskEntry8f_actionEv",
            "__ZN14EntityRenderer15renderWorldPassEifl",
            "__ZN9Character24f_COMBINING_SPACING_MARKEv",
            "__ZN17ObjectInputStream9f_handlesEv",
            "__ZN9Character7f_BYTESEv",
            "__ZN5oatpp3web8protocol4http8encoding22ChunkedDecoderProvider12getProcessorEv",
            "__ZN22ResourcePackRepository16f_field_177322_iEv",
            "__ZN10MemberName7f_clazzEv",
            "__ZN15S28PacketEffect12f_serverWideEv",
            "__ZN11SurfaceData15setBlitProxyKeyE6Object",
            "__ZN10BaseLocale7f_ITALYEv",
            "__ZN13SunGraphics2D9constrainEiiii6Region",
            "__ZN6Potion12f_saturationEv",
            "__ZN21GraphicsConfiguration21getBufferCapabilitiesEv",
            "__ZN8Graphics10setXORModeE5Color",
            "__ZN6Buffer4flipEv",
            "__Z19getFileNameFromPathRKNSt3__112basic_stringIcNS_11char_traitsIcEENS_9allocatorIcEEEE",
            "__ZN15IdentityHashMap5clearEv",
            "__ZN9Crossings6coversEdd",
            "__ZN21ChunkRenderDispatcher18getNextChunkUpdateEv",
            "__ZN7TreeMap8firstKeyEv",
            "__ZN14ResolvedModule13configurationEv",
            "__ZN9Minecraft18f_renderChunksManyEv",
            "__ZN4Font8hashCodeEv",
            "__ZN10BigDecimal14movePointRightEi",
            "__ZN14RenderingHints8entrySetEv",
            "__ZN8Optional3or_E8Supplier",
            "__ZN14BiomeDecorator13f_andesiteGenEv",
            "__ZN10BigDecimal26squareRootResultAssertionsES_11MathContext",
            "__ZN17ConcurrentHashMap4keysEv",
            "__ZN29C08PacketPlayerBlockPlacement10f_positionEv",
            "__ZN15C03PacketPlayer6getYawEv",
            "__ZN10AppContext20f_contextClassLoaderEv",
            "__ZN19NumericShaper_Range19f_MYANMAR_TAI_LAINGEv",
            "__ZN16Team_EnumVisible19f_HIDE_FOR_OWN_TEAMEv",
            "__ZN16ClassLoaderValue21isEqualOrDescendantOfE24AbstractClassLoaderValue",
            "__ZN11WindowEvent22f_WINDOW_STATE_CHANGEDEv",
            "__ZN7Instant6createEli",
            "__ZN17WorldChunkManager16f_field_180301_fEv",
            "__ZN28AbstractClassLoaderValue_Sub21isEqualOrDescendantOfE24AbstractClassLoaderValue",
            "__ZN6Reader4readE10CharBuffer",
            "__ZN13MenuComponent20getAccessibleContextEv",
            "__ZN26AbstractQueuedSynchronizer7enqueueE31AbstractQueuedSynchronizer_Node",
            "__ZN9Minecraft15getTwitchStreamEv",
            "__ZN5Block13getLightValueEv",
            "__ZN20GameSettings_Options12f_FBO_ENABLEEv",
            "__ZN8TimeZone7f_SHORTEv",
            "__ZN13TextAttribute13f_WEIGHT_BOLDEv",
            "__ZN11SurfaceType16f_DESC_ANY_COLOREv",
            "__ZN12RenderGlobal23onResourceManagerReloadE16IResourceManager",
            "__ZN16JsonBlendingMode16f_field_148117_cEv",
            "__ZN10BigInteger6negateEv",
            "__ZN17BoundMethodHandle13bindArgumentFEif",
            "__ZN5World20getVillageCollectionEv",
            "__ZN10EventQueue12getNextEventEv",
            "__ZN10MemberName8f_methodEv",
            "__ZN5oatpp4data6stream25OutputStreamBufferedProxy21getOutputStreamIOModeEv",
            "__ZN10DataBuffer7setElemEiii",
            "__ZN10RenderItem13func_181565_aE13WorldRendereriiiiiiii",
            "__ZN8MimeType15removeParameterE6String",
            "__ZN18ForwardingMultimap13containsValueE6Object",
            "__ZN17ObjectStreamField12getSignatureEv",
            "__ZN17HttpURLConnection13f_chunkLengthEv",
            "__ZN16LocaleExtensions8toStringEv",
            "__ZN24PageAttributes_MediaType10f_I_ISO_B4Ev",
            "__ZN23ResourceBundle_CacheKey8setCauseE9Throwable",
            "__ZN3Gui11f_statIconsEv",
            "__ZN16SocketPermission7inRangeEiiii",
            "__ZN10DelayQueue11f_availableEv",
            "__ZN17FilterInputStream4markEi",
            "__ZN8StatBase13func_150955_jEv",
            "__ZN9Minecraft14f_theMinecraftEv",
            "__ZN6Module22implAddReadsAllUnnamedEv",
            "__ZN16AppContext_State10f_DISPOSEDEv",
            "__ZNK5oatpp3web8protocol4http8incoming17SimpleBodyDecoder18handleExpectHeaderERKNS_4data5share21LazyStringMapTemplateINS6_16StringKeyLabelCIENSt3__118unordered_multimapIS8_NS6_14StringKeyLabelENS9_4hashIS8_EENS9_8equal_toIS8_EENS9_9allocatorINS9_4pairIKS8_SB_EEEEEEEEPNS5_6stream8IOStreamE",
            "__ZN10ByteBuffer7getLongEv",
            "__ZN7TreeMap3keyE13TreeMap_Entry",
            "__ZN6Unsafe10putAddressEll",
            "__ZN7Polygon5resetEv",
            "__ZN13CombatTracker15f_field_94551_fEv",
            "__ZN7ByteBuf8setBytesEiS_i",
            "__ZN10ByteVector7putByteEi",
            "__ZN6Thread31f_inheritedAccessControlContextEv",
            "__ZN12FontRenderer13func_181559_aEcb",
            "__ZN8TimeZone5setIDE6String",
            "__ZN10JsonReader8nextLongEv",
            "__ZN10NBTTagList10getTagTypeEv",
            "__ZN13SunGraphics2D14getDestSurfaceEv",
            "__ZN20AbstractClientPlayer20getDownloadImageSkinE16ResourceLocation6String",
            "__ZN8Vector3D3addES_S_",
            "__ZN9Attribute5writeE11ClassWriter5arr_Biii",
            "__ZN17MutableBigInteger6divideES_S_b",
            "__ZN10MemberName8hashCodeEv",
            "__ZN10BigInteger16intArrayCmpToLenE5arr_IS0_i",
            "__ZN16LambdaFormEditor26filterRepeatedArgumentFormE20LambdaForm_BasicType5arr_I",
            "__ZN11FieldWriter20f_constantValueIndexEv",
            "__ZN12RenderGlobal21f_countEntitiesHiddenEv",
            "__ZN11LongHashMap15copyHashTableToE27LongHashMap_Entry_interface",
            "__ZN9GuiScreen7f_widthEv",
            "__ZN16IntHashMap_Entry11f_hashEntryEv",
            "__ZN4Font9getFont2DEv",
            "__ZN18Rectangle2D_Double9getHeightEv",
            "__ZN34DateTimeFormatterBuilder_DayPeriod7f_indexEv",
            "__ZN3URI5matchEcll",
            "__ZN5World24calculateInitialSkylightEv",
            "__ZN12BiomeGenBase7f_beachEv",
            "__ZN8Graphics7hitClipEiiii",
            "__ZN5World24f_prevThunderingStrengthEv",
            "__ZN6Potion22f_attributeModifierMapEv",
            "__ZN14BiomeDecorator16f_mushroomRedGenEv",
            "__ZN16S2FPacketSetSlot13func_149174_eEv",
            "__ZN23ResourceBundle_CacheKey8hashCodeEv",
            "__ZN14ResourceBundle9getBundleE6String6Locale",
            "__ZN20S0CPacketSpawnPlayer16f_field_148958_jEv",
            "__ZN24S39PacketPlayerAbilities15writePacketDataE12PacketBuffer",
            "__ZN8Duration6f_ZEROEv",
            "__ZN18LocaleNameProvider16getDisplayScriptE6String6Locale",
            "__ZN9WorldInfo22f_borderSizeLerpTargetEv",
            "__ZN13SpectatorMenu13func_178643_aEi",
            "__ZN16AbstractCalendar17getTimeOfDayValueE12CalendarDate",
            "__ZN12EntityAnimal16writeEntityToNBTE14NBTTagCompound",
            "__ZN5Color5f_REDEv",
            "__ZN6Thread23f_threadLocalRandomSeedEv",
            "__ZN17DateTimeFormatter9parseBestE12CharSequence23TemporalQuery_interface",
            "__ZN14PageAttributes6equalsE6Object",
            "__ZN17NetworkPlayerInfo13func_178843_cEl",
            "__ZN10DragSource10f_listenerEv",
            "__ZN10EntityItem5f_ageEv",
            "__ZN9VarHandle29throwWrongMethodTypeExceptionE26VarHandle_AccessDescriptor",
            "__ZN11ModelPlayer18f_bipedLeftArmwearEv",
            "__ZN40ObjectOutputStream_BlockDataOutputStream12writeLongUTFE6String",
            "__ZN25ChunkCompileTaskGenerator9getStatusEv",
            "__ZN4Font17layoutGlyphVectorE17FontRenderContext5arr_Ciii",
            "__ZN6Raster7initIDsEv",
            "__ZN10AppContext24stopEventDispatchThreadsEv",
            "__ZN15DropTargetEvent20getDropTargetContextEv",
            "__ZN9Component10f_isPackedEv",
            "__ZN22ModuleDescriptor_Opens11isQualifiedEv",
            "__ZN24ClassValue_ClassValueMap11f_cacheLoadEv",
            "__ZN6Cursor7getTypeEv",
            "__ZN5Field6getIntE6Object",
            "__ZN15MinecraftServer13getDifficultyEv",
            "__ZN18ArrayTypeSignature6acceptE15TypeTreeVisitor",
            "__ZN18ObjectOutputStream9writeCharEi",
            "__ZN10DelayQueue6removeE6Object",
            "__ZN13DecimalFormat15getGroupingSizeEv",
            "__ZN8Optional8hashCodeEv",
            "__ZN20GameSettings_Options10f_valueMaxEv",
            "__ZN19ChunkProviderClient10f_worldObjEv",
            "__ZN11SoundSystem15f_commandThreadEv",
            "__ZN10DropTarget20getDropTargetContextEv",
            "__ZN6Parsed13f_fieldValuesEv",
            "__ZN5Float14intBitsToFloatEi",
            "__ZN17CharToGlyphMapper21f_UNINITIALIZED_GLYPHEv",
            "__ZN6Module8toStringEv",
            "__ZN6Entity16addToPlayerScoreES_i",
            "__ZN12EntityPlayer13addExhaustionEf",
            "__ZN6Parsed11resolveTimeEllll",
            "__ZN6Line2D12ptLineDistSqE7Point2D",
            "__ZN10ServerData12f_serverNameEv",
            "__ZN17ConcurrentHashMap10f_RESERVEDEv",
            "__ZN40SunDropTargetContextPeer_EventDispatcher19unregisterAllEventsEv",
            "__ZN15MinecraftServer22outputPercentRemainingE6Stringi",
            "__ZN5Chunk8getWorldEv",
            "__ZN7Toolkit11getPrintJobE5Frame6String13JobAttributes14PageAttributes",
            "__ZN11WindowEvent15f_WINDOW_OPENEDEv",
            "__ZN10ColorSpace10f_TYPE_HLSEv",
            "__ZN6Entity11getUniqueIDEv",
            "__ZN10DropTarget19doSetDefaultActionsEi",
            "__ZN6Raster18createPackedRasterE10DataBufferiii5Point",
            "__ZN8MapColor11f_woodColorEv",
            "__ZN17CharToGlyphMapper13charsToGlyphsEi5arr_IS0_",
            "__ZN8Splitter2onE6String",
            "__ZN6Entity18getMaxInPortalTimeEv",
            "__ZN18Rectangle2D_Double8getWidthEv",
            "__ZN10NBTTagList5getIdEv",
            "__ZN5oatpp6parser4json7mapping10Serializer17serializeToStreamEPNS_4data6stream22ConsistentOutputStreamERKNS4_7mapping4type4VoidE",
            "__ZN21GraphicsConfiguration9getDeviceEv",
            "__ZN17HttpURLConnection14f_HTTP_VERSIONEv",
            "__ZN14StackFrameInfo14declaringClassEv",
            "__ZN11WorldBorder8containsE13AxisAlignedBB",
            "__ZN24PageAttributes_MediaType4f_C0Ev",
            "__ZN18ClassTypeSignature7getPathEv",
            "__ZN13ReentrantLock14getQueueLengthEv",
            "__ZN24PageAttributes_MediaType9f_INVOICEEv",
            "__ZN8Optional8toStringEv",
            "__ZN18MemorySegmentProxy17overflowExceptionEll",
            "__ZN13VolatileImage12contentsLostEv",
            "__ZN13WorldSettings18getHardcoreEnabledEv",
            "__ZN20NetHandlerPlayClient25handleSetCompressionLevelE28S46PacketSetCompressionLevel",
            "__ZN31EntityPlayer_EnumChatVisibility13f_resourceKeyEv",
            "__ZN7MenuBar11setHelpMenuE4Menu",
            "__ZN7Pattern9groupnameEi",
            "__ZN12SelectionKey10isReadableEv",
            "__ZN6Unsafe9byte2boolEh",
            "__ZN18PlayerControllerMP18sendPacketDropItemE9ItemStack",
            "__ZN13SunGraphics2D13revalidateAllEv",
            "__ZN23ThreadDownloadImageData10f_imageUrlEv",
            "__ZN10PathEntity19setCurrentPathIndexEi",
            "__ZN42AbstractQueuedSynchronizer_ConditionObject10awaitUntilE4Date",
            "__ZN11Enchantment8f_weightEv",
            "__ZN24AnimationMetadataSection14getFrameHeightEv",
            "__ZN15EntityItemFrame14dropItemOrSelfE6Entityb",
            "__ZN10DragSource23createDragSourceContextE16DragGestureEvent6Cursor5Image5Point12Transferable18DragSourceListener",
            "__ZN11ChronoField5f_ERAEv",
            "__ZN31AbstractQueuedSynchronizer_Node6f_PREVEv",
            "__ZN11Enchantment7getNameEv",
            "__ZN11MidiChannel5pauseEv",
            "__ZN18TextureAtlasSprite22clearFramesTextureDataEv",
            "__ZN17VillageCollection13f_villageListEv",
            "__ZN8Invokers38varHandleMethodGenericLinkerHandleFormE10MethodType",
            "__ZN31ObjectOutputStream_PutFieldImpl3putE6Stringd",
            "__ZN7Wrapper27newIllegalArgumentExceptionE6String",
            "__ZN6Window8isOpaqueEv",
            "__ZN18AccessibleRelation13f_EMBEDDED_BYEv",
            "__ZN15AffineTransform13calculateTypeEv",
            "__ZN15MinecraftServer13setOnlineModeEb",
            "__ZN7Context25f_currentMethodDescriptorEv",
            "__ZN9LocalTime16f_MICROS_PER_DAYEv",
            "__ZN10DateFormat9isLenientEv",
            "__ZN16RectangularShape9getHeightEv",
            "__ZN14NetworkManager13getNetHandlerEv",
            "__ZN21ChunkProviderSettings10f_useCavesEv",
            "__ZN11SurfaceData11f_compShapeEv",
            "__ZN18S2APacketParticles14isLongDistanceEv",
            "__ZN12RenderPlayer12rotateCorpseE20AbstractClientPlayerfff",
            "__ZN18ScopedMemoryAccess28getAndSetLongAcquireInternalE24ScopedMemoryAccess_Scope6Objectll",
            "__ZN13BufferedImage12getTileWidthEv",
            "__ZN9TextStyle12asStandaloneEv",
            "__ZN11PrintWriter7printlnEb",
            "__ZN14EntityPlayerSP11getPositionEv",
            "__ZN12BiomeGenBase12f_jungleEdgeEv",
            "__ZN5oatpp7network3Url6Parser11parseSchemeERNS_6parser5CaretE",
            "__ZN24S39PacketPlayerAbilities10f_flySpeedEv",
            "__ZN13BufferedImage18f_DCM_555_GRN_MASKEv",
            "__ZN27S3CPacketUpdateScore_Action8f_CHANGEEv",
            "__ZN11TypeAdapter10toJsonTreeE6Object",
            "__ZN14AnnotationType14memberDefaultsEv",
            "__ZN9SoundList17f_replaceExistingEv",
            "__ZN13DecimalFormat17getNegativeSuffixEv",
            "__ZN12PacketBuffer7setCharEii",
            "__ZN6Cursor7f_pDataEv",
            "__ZN8MapColor14f_magentaColorEv",
            "__ZN12NamedPackage9toPackageE6String6Module",
            "__ZN10BlockState12getBaseStateEv",
            "__ZN14BlockEventData11f_blockTypeEv",
            "__ZN7Village15f_numIronGolemsEv",
            "__ZN8Calendar8f_FRIDAYEv",
            "__ZN14WritableRaster8setPixelEii5arr_D",
            "__ZN26ServerConfigurationManager14f_viewDistanceEv",
            "__ZN7Instant7f_nanosEv",
            "__ZN7TreeMap9valEqualsE6ObjectS0_",
            "__ZN29BoundMethodHandle_Specializer16f_BMH_TRANSFORMSEv",
            "__ZN13DecimalFormat15subformatNumberE12StringBuffer20Format_FieldDelegatebbiiii",
            "__ZN6Unsafe20getAndSetCharReleaseE6Objectlc",
            "__ZN25PageAttributes_OriginType12f_I_PHYSICALEv",
            "__ZN29C07PacketPlayerDigging_Action21f_START_DESTROY_BLOCKEv",
            "__ZN12StreamThread8f_loggerEv",
            "__ZN6Window17applyCurrentShapeEv",
            "__ZN9ItemStack10canPlaceOnE5Block",
            "__ZN8Provider15implPutIfAbsentE6ObjectS0_",
            "__ZN17ConcurrentHashMap8sumCountEv",
            "__ZN25BiomeGenBase_TempCategory6f_WARMEv",
            "__ZN16SpectatorDetails13func_178681_bEv",
            "__ZN10ColorModel8toStringEv",
            "__ZN11WorldBorder18getClosestDistanceE6Entity",
            "__ZN18DirectMethodHandle22f_NF_ensureInitializedEv",
            "__ZN10ColorSpace9isCS_sRGBEv",
            "__ZN20C14PacketTabComplete13f_targetBlockEv",
            "__ZN10OffsetTime8f_offsetEv",
            "__ZN16AbstractSelector5closeEv",
            "__ZN13BreakIterator6f_DONEEv",
            "__ZN10EAttribute8f_EWIDTHEv",
            "__ZN15AttributeValues10f_MASK_ALLEv",
            "__ZN12SoundManager14isSoundPlayingE6ISound",
            "__ZN9Component6actionE5Event6Object",
            "__ZN19S33PacketUpdateSign14readPacketDataE12PacketBuffer",
            "__ZN8KeyEvent11f_VK_ACCEPTEv",
            "__ZN7ByteBuf8readCharEv",
            "__ZN16SocketPermission10getActionsEi",
            "__ZN15IndexColorModel6equalsE6Object",
            "__ZN6Handle7f_ownerEv",
            "__ZN13ZonedDateTime11plusMinutesEl",
            "__ZN3Gui21drawTexturedModalRectEiiiiii",
            "__ZN14PageAttributes8setMediaE24PageAttributes_MediaType",
            "__ZN13CombatTracker16f_field_152776_eEv",
            "__ZN10JsonWriter5flushEv",
            "__ZN5Class18checkPackageAccessE15SecurityManager11ClassLoaderb",
            "__ZN29ObjectInputStream_HandleTable6finishEi",
            "__ZN7Pattern12bitsOrSingleE16Pattern_BitClassi",
            "__ZN10LambdaForm7isEmptyEv",
            "__ZN9LocalTime6formatE17DateTimeFormatter",
            "__ZN6Path2D11writeObjectE18ObjectOutputStreamb",
            "__ZN11ModuleLayer13configurationEv",
            "__ZN15ScorePlayerTeam20setAllowFriendlyFireEb",
            "__ZN12EntityPlayer13func_175145_aE8StatBase",
            "__ZN14RegistrySimple11containsKeyE6Object",
            "__ZN6Unsafe17putDoubleVolatileE6Objectld",
            "__ZN5oatpp7network3tcp10Connection20getInputStreamIOModeEv",
            "__ZN7Matcher7f_firstEv",
            "__ZN6Entity9isBurningEv",
            "__ZN6Unsafe18getAndSetReferenceE6ObjectlS0_",
            "__ZN15SecurityManager9checkExitEi",
            "__ZN7Integer8toStringEi",
            "__ZN8KeyEvent16f_VK_SCROLL_LOCKEv",
            "__ZN10LinkedList12listIteratorEi",
            "__ZN28S46PacketSetCompressionLevel13processPacketE21INetHandlerPlayClient",
            "__ZN16ConstantPool_Tag11f_METHODREFEv",
            "__ZN24PageAttributes_MediaType18f_MONARCH_ENVELOPEEv",
            "__ZN16BlockModelShapes17registerAllBlocksEv",
            "__ZN10JsonReader7f_limitEv",
            "__ZN10MemberName25makeVarHandleMethodInvokeE6String10MethodType",
            "__ZN29PixelToParallelogramConverter9normalizeEd",
            "__ZN10GuiNewChat17addToSentMessagesE6String",
            "__ZN24S49PacketUpdateEntityNBT14readPacketDataE12PacketBuffer",
            "__ZN14S45PacketTitle14getFadeOutTimeEv",
            "__ZN24PageAttributes_MediaType11f_STATEMENTEv",
            "__ZN6Locale8f_FRENCHEv",
            "__ZN13MethodVisitor9visitInsnEi",
            "__ZN5Block12f_blockStateEv",
            "__ZN7MapData11readFromNBTE14NBTTagCompound",
            "__ZN6Random9nextBytesE5arr_B",
            "__ZN16ServerScoreboard20broadcastTeamCreatedE15ScorePlayerTeam",
            "__ZN20VarHandle_AccessType5f_SETEv",
            "__ZN13ReentrantLock12newConditionEv",
            "__ZN20NetHandlerPlayClient23f_clientWorldControllerEv",
            "__ZN15EnumFacing_Axis6byNameE6String",
            "__ZN10LongBuffer8putArrayEi5arr_Jii",
            "__ZN14DatagramSocket10leaveGroupE13SocketAddress16NetworkInterface",
            "__ZN12GlyphMetrics11f_COMBININGEv",
            "__ZN10EnumFacing15getDirectionVecEv",
            "__ZN15GuiOverlayDebug19renderDebugInfoLeftEv",
            "__ZN12StringBuffer8getBytesE5arr_Bih",
            "__ZN13LocalDateTime5parseE12CharSequence17DateTimeFormatter",
            "__ZN13RenderManager14doRenderEntityE6Entitydddffb",
            "__ZN7ByteBuf5orderE9ByteOrder",
            "__ZN14ScoreObjective14setDisplayNameE6String",
            "__ZN19NumericShaper_Range7f_ORIYAEv",
            "__ZN12FontRenderer11bidiReorderE6String",
            "__ZN21CertificateFactorySpi26engineGetCertPathEncodingsEv",
            "__ZN12PacketBuffer8getFloatEi",
            "__ZN6String7valueOfE5arr_Cii",
            "__ZN16ClassValue_Entry16assertNotPromiseEv",
            "__ZN11EntityHorse14isHorseSaddledEv",
            "__ZN29PixelToParallelogramConverter3lenEdd",
            "__ZN25S22PacketMultiBlockChange15writePacketDataE12PacketBuffer",
            "__ZN12PropertyBool7getNameE7Boolean",
            "__ZN27ReentrantReadWriteLock_Sync8getOwnerEv",
            "__ZN17DateFormatSymbols12getZoneIndexE6String",
            "__ZN14BiomeDecorator15genStandardOre1Ei14WorldGeneratorii",
            "__ZN9GuiButton25drawButtonForegroundLayerEii",
            "__ZN7MenuBar6removeEi",
            "__ZN11SurfaceType23f_DESC_USHORT_4444_ARGBEv",
            "__ZN10EventQueue19getCurrentEventImplEv",
            "__ZN15IdentityHashMap5cloneEv",
            "__ZN4Vec315subtractReverseES_",
            "__ZN10AppContext10isDisposedEv",
            "__ZN5World14isMaterialInBBE13AxisAlignedBB8Material",
            "__ZN6Writer5writeE6String",
            "__ZN14AlphaComposite5f_XOREv",
            "__ZN6Raster15getDataElementsEii6Object",
            "__ZN17StackTraceElement12f_methodNameEv",
            "__ZN17EnumParticleTypes8f_PORTALEv",
            "__ZN6Parsed13resolveFieldsEv",
            "__ZN11ClassLoader11findLibraryE6String",
            "__ZN8Provider12f_serviceSetEv",
            "__ZN4Date5parseE6String",
            "__ZN9LocalDate9compareToE15ChronoLocalDate",
            "__ZN3URI8f_H_MARKEv",
            "__ZN13TextAttribute16f_TRACKING_LOOSEEv",
            "__ZN7EnumSet18f_serialVersionUIDEv",
            "__ZN21Properties_LineReader8readLineEv",
            "__ZN24PageAttributes_MediaType9f_ENV_6X9Ev",
            "__ZN11WorldServer4tickEv",
            "__ZN20RendererLivingEntity17setRenderOutlinesEb",
            "__ZN17S01PacketJoinGame15writePacketDataE12PacketBuffer",
            "__ZN14WritableRaster7setRectEii6Raster",
            "__ZN9Component7getSizeE9Dimension",
            "__ZN6Random7doublesEl",
            "__ZN9TaskQueue3getEi",
            "__ZN18MemberName_Factory10getMethodsE5Classb6String10MethodTypeS0_",
            "__ZN24ModuleDescriptor_Version8hashCodeEv",
            "__ZN11PrintStream10checkErrorEv",
            "__ZN3URI7f_queryEv",
            "__ZN4Long8hashCodeEv",
            "__ZN18S27PacketExplosion13func_149149_cEv",
            "__ZN10MethodType30effectivelyIdenticalParametersEi4List",
            "__ZN17ObjectStreamClass19f_readResolveMethodEv",
            "__ZN18AccessibleRelation15f_CONTROLLED_BYEv",
            "__ZN4Menu10countItemsEv",
            "__ZN18DirectMethodHandle16checkInitializedE10MemberName",
            "__ZN5Event5f_argEv",
            "__ZN25S35PacketUpdateTileEntity14getNbtCompoundEv",
            "__ZN5World19f_spawnPeacefulMobsEv",
            "__ZN7Wrapper12isSingleWordEv",
            "__ZN10MethodType11readResolveEv",
            "__ZN13SunGraphics2D11getCompClipEv",
            "__ZN18SunDropTargetEvent7disposeEv",
            "__ZN10GuiNewChat8f_loggerEv",
            "__ZN15BottomSignature11f_singletonEv",
            "__ZN16BlockModelShapes14f_modelManagerEv",
            "__ZN31PageAttributes_PrintQualityType8f_I_HIGHEv",
            "__ZN5Block13func_181623_gEv",
            "__ZN10BigDecimal13f_stringCacheEv",
            "__ZN6Thread27setUncaughtExceptionHandlerE31Thread_UncaughtExceptionHandler",
            "__ZN8Duration10toDaysPartEv",
            "__ZN16SocketPermission11writeObjectE18ObjectOutputStream",
            "__ZN6Dialog14modalityPoppedEv",
            "__ZN7Toolkit11newAWTErrorE9Throwable6String",
            "__ZN11InetAddress22getHostFromNameServiceES_b",
            "__ZN9GuiButton9f_visibleEv",
            "__ZN8Ordering7compareE6ObjectS0_",
            "__ZN8Calendar14f_WEEK_OF_YEAREv",
            "__ZN8Vector4f4getWEv",
            "__ZN10PathFinder6f_pathEv",
            "__ZN5Block14getRenderColorE11IBlockState",
            "__ZN15SecurityManager15nonExportedPkgsE16ModuleDescriptor",
            "__ZN6Source16reverseByteOrderEv",
            "__ZN13WorldRenderer13func_181664_jEv",
            "__ZN19EnumEnchantmentType12f_ARMOR_LEGSEv",
            "__ZN11DisplayMode10f_bitDepthEv",
            "__ZN8Graphics9drawImageE5Imageii13ImageObserver",
            "__ZN6Source5flushEv",
            "__ZN10Properties6putAllE3Map",
            "__ZN7HashMap6valuesEv",
            "__ZN8Provider16computeIfPresentE6Object10BiFunction",
            "__ZN12RenderGlobal9renderSkyEfi",
            "__ZN13ShaderUniform11uploadFloatEv",
            "__ZN9GuiButton13mouseReleasedEii",
            "__ZN6Unsafe13getLongOpaqueE6Objectl",
            "__ZN10UniqueName12validateArgsE16Object_interface",
            "__ZN8Currency8f_SYMBOLEv",
            "__ZN22WorldSettings_GameType7getNameEv",
            "__ZN11SurfaceData18f_disposerReferentEv",
            "__ZN5oatpp3web3url7mapping7Pattern5parseEPhl",
            "__ZN18TextureAtlasSprite9f_rotatedEv",
            "__ZN6Source10f_priorityEv",
            "__ZN4Date11writeObjectE18ObjectOutputStream",
            "__ZN6Potion16f_field_180153_zEv",
            "__ZN12SimpleThread5rerunEv",
            "__ZN20StructureBoundingBox8getYSizeEv",
            "__ZN19DefaultResourcePack18getResourceDomainsEv",
            "__ZN13WorldProvider14canRespawnHereEv",
            "__ZN13ModelRenderer6renderEf",
            "__ZN26BlockFlower_EnumFlowerType13f_WHITE_TULIPEv",
            "__ZN11EntityHorse14openHorseMouthEv",
            "__ZN17Rectangle2D_Float7f_widthEv",
            "__ZN10IntHashMap7f_countEv",
            "__ZN8AWTEvent15nativeSetSourceE13ComponentPeer",
            "__ZN33ObjectInputStream_PeekInputStream4f_inEv",
            "__ZN5oatpp6parser4json5Utils11parseStringERNS0_5CaretE",
            "__ZN8Language15isBidirectionalEv",
            "__ZN7Pattern15isLineSeparatorEi",
            "__ZN9LocalTime4plusEl12TemporalUnit",
            "__ZN9DigitList6appendEc",
            "__ZN7Integer9compareToES_",
            "__ZN8BanEntry8f_reasonEv",
            "__ZN12RenderGlobal17f_lastViewEntityYEv",
            "__ZN13DrawGlyphList12f_primTypeIDEv",
            "__ZN22ReentrantReadWriteLock6f_syncEv",
            "__ZN5oatpp3web6server13HttpProcessor4TaskaSEOS3_",
            "__ZN17ObjectStreamClass18getMethodSignatureE15Class_interface5Class",
            "__ZN14FileDescriptor5f_errEv",
            "__ZN10JsonWriter10beginArrayEv",
            "__ZN12PacketBuffer13writeBlockPosE8BlockPos",
            "__ZN5Field3setE6ObjectS0_",
            "__ZN17ObjectStreamClass6f_nameEv",
            "__ZN21ChunkProviderSettings18f_depthNoiseScaleZEv",
            "__ZN6Dialog11shouldBlockE6Window",
            "__ZN5Block25onEntityCollidedWithBlockE5World8BlockPos6Entity",
            "__ZN24ClassValue_ClassValueMap16f_cacheLoadLimitEv",
            "__ZN4Enum7ordinalEv",
            "__ZN6ZoneId10normalizedEv",
            "__ZN11SoundSystem19CommandMoveListenerEfff",
            "__ZN8JsonNull6equalsE6Object",
            "__ZN18PlayerControllerMP25f_currentItemHittingBlockEv",
            "__ZN19C12PacketUpdateSign14readPacketDataE12PacketBuffer",
            "__ZN12MethodWriter14visitFieldInsnEi6StringS0_S0_",
            "__ZN14EntityPlayerMP8trySleepE8BlockPos",
            "__ZN6Unsafe13getIntAcquireE6Objectl",
            "__ZN11SurfaceType22f_DESC_BYTE_INDEXED_BMEv",
            "__ZN6Line2D5getY2Ev",
            "__ZN19VertexFormatElement7getSizeEv",
            "__ZN12EntityPlayer7isInBedEv",
            "__ZN6Socket7setImplE10SocketImpl",
            "__ZN9PathPoint6equalsE6Object",
            "__ZN9WorldInfo11f_levelNameEv",
            "__ZN10MethodType8invokersEv",
            "__ZN20WorldGenAbstractTree13func_175921_aE5World8BlockPos",
            "__ZN24C13PacketPlayerAbilities11f_walkSpeedEv",
            "__ZN4File18f_serialVersionUIDEv",
            "__ZN24S39PacketPlayerAbilities13f_allowFlyingEv",
            "__ZN6Unsafe16arrayIndexScale0E5Class",
            "__ZN11ThreadGroup17threadStartFailedE6Thread",
            "__ZN16LocaleExtensions26getUnicodeLocaleAttributesEv",
            "__ZN11WorldClient13onEntityAddedE6Entity",
            "__ZN10OffsetTime13toEpochSecondE9LocalDate",
            "__ZN9LocalTime5f_MINEv",
            "__ZN10DateFormat16f_TIMEZONE_FIELDEv",
            "__ZN21C16PacketClientStatus9getStatusEv",
            "__ZN12ModelManager13getTextureMapEv",
            "__ZN27C0FPacketConfirmTransaction11getWindowIdEv",
            "__ZN8Vector3f9translateEfff",
            "__ZN8Provider13f_initializedEv",
            "__ZN3URI9f_L_PCHAREv",
            "__ZN13SunGraphics2D12f_renderHintEv",
            "__ZN17EnumParticleTypes14f_WATER_BUBBLEEv",
            "__ZN18PlayerProfileCache27f_usernameToProfileEntryMapEv",
            "__ZN20NetHandlerPlayServer12f_netManagerEv",
            "__ZN19S45PacketTitle_Type6byNameE6String",
            "__ZN11MetaMessage6f_maskEv",
            "__ZN14AlphaComposite11getInstanceEif",
            "__ZN11SoundSystem14currentLibraryEb5Class",
            "__ZN15Block_SoundType11f_soundNameEv",
            "__ZN5Event6f_LEFTEv",
            "__ZN10BigInteger15getLowestSetBitEv",
            "__ZN5Block8tickRateE5World",
            "__ZN14NBTTagCompound5mergeES_",
            "__ZN9Component8hasFocusEv",
            "__ZN8Matrix4f5f_m31Ev",
            "__ZN5Block24getUseNeighborBrightnessEv",
            "__ZN21ChunkRenderDispatcher17freeRenderBuilderE24RegionRenderCacheBuilder",
            "__ZN15IdentityHashMap13removeMappingE6ObjectS0_",
            "__ZN11WorldBorder9f_endTimeEv",
            "__ZN12GameSettings8f_loggerEv",
            "__ZN11SurfaceData13f_surfaceLostEv",
            "__ZN7Pattern4readEv",
            "__ZN15InventoryPlayer18f_inventoryChangedEv",
            "__ZN19EventDispatchThread3runEv",
            "__ZN9Component18requestFocusHelperEbb16FocusEvent_Cause",
            "__ZN7ByteBuf6retainEv",
            "__ZN13SunGraphics2D10setXORModeE5Color",
            "__ZN13CompiledChunk7f_emptyEv",
            "__ZN10BigDecimal21divideToIntegralValueES_11MathContext",
            "__ZN10Scoreboard22getObjectivesForEntityE6String",
            "__ZN7HashMap15computeIfAbsentE6Object8Function",
            "__ZN8Graphics9drawBytesE5arr_Biiii",
            "__ZN8Calendar13computeFieldsEv",
            "__ZN13TextAttribute20f_WEIGHT_EXTRA_LIGHTEv",
            "__ZN14StackFrameInfo13getLineNumberEv",
            "__ZN12EntityPlayer11setGameTypeE22WorldSettings_GameType",
            "__ZN14RenderingHints3addES_",
            "__ZN22ModuleDescriptor_Opens9modifiersEv",
            "__ZN5Frame9f_BOOLEANEv",
            "__ZN8MimeType11f_TSPECIALSEv",
            "__ZN5oatpp6parser4json7mapping12ObjectMapper15getDeserializerEv",
            "__ZN11ClassWriter32f_lastRuntimeInvisibleAnnotationEv",
            "__ZN23S12PacketEntityVelocity9f_motionXEv",
            "__ZN20LambdaForm_BasicType8f_L_TYPEEv",
            "__ZN6BitSet8expandToEi",
            "__ZN13Configuration9f_modulesEv",
            "__ZN20TileEntityEnderChest14f_prevLidAngleEv",
            "__ZN13EntityAgeable16writeEntityToNBTE14NBTTagCompound",
            "__ZN7ByteBuf8hashCodeEv",
            "__ZN5Frame11f_KIND_MASKEv",
            "__ZN5World12isSpawnChunkEii",
            "__ZN5oatpp3web8protocol4http8outgoing8Response10getHeadersEv",
            "__ZN38ObjectInputStream_BlockDataInputStream9readFullyE5arr_B",
            "__ZN18DrawGlyphListColor12f_primTypeIDEv",
            "__ZN23ResourceBundle_CacheKey7getNameEv",
            "__ZN17MutableBigInteger8getLowerEi",
            "__ZN6Module7getNameEv",
            "__ZN9Clipboard7getDataE10DataFlavor",
            "__ZN29ObjectInputStream_HandleTable6assignE6Object",
            "__ZN10TextureMap16initMissingImageEv",
            "__ZN11FilenameURL15printStackTraceE9Exception",
            "__ZN13SoundCategory15getCategoryNameEv",
            "__ZN17MutableBigInteger8isNormalEv",
            "__ZN12PathNavigate17f_pathSearchRangeEv",
            "__ZN9Crossings6getXHiEv",
            "__ZN10MapStorage10f_idCountsEv",
            "__ZN16DrawGlyphListLCD9traceWrapEv",
            "__ZN24PageAttributes_MediaType10f_I_QUARTOEv",
            "__ZN5oatpp4data6buffer15InlineWriteData3setEPKvl",
            "__ZN6Period11parseNumberE12CharSequenceiii",
            "__ZN16NetworkInterface16getInetAddressesEv",
            "__ZN14OffsetDateTime13getMonthValueEv",
            "__ZN17BoundMethodHandle13bindArgumentJEil",
            "__ZN20OffScreenImageSource10isConsumerE13ImageConsumer",
            "__ZN10ByteBuffer4markEv",
            "__ZN10ClassValue13getFromBackupE26ClassValue_Entry_interface5Class",
            "__ZN15IndexColorModel8getGreenEi",
            "__ZN12PathNavigate25isDirectPathBetweenPointsE4Vec3S0_iii",
            "__ZN10DataBuffer14f_theTrackableEv",
            "__ZN11Dimension2D5cloneEv",
            "__ZN16SelectorProvider23openServerSocketChannelE14ProtocolFamily",
            "__ZN11WeakHashMap11f_thresholdEv",
            "__ZN12StringBuffer6appendE12CharSequence",
            "__ZN6Window22f_securityWarningWidthEv",
            "__ZN16EnumCreatureType9f_MONSTEREv",
            "__ZN9Component20getFont_NoClientCodeEv",
            "__ZN7Pattern12f_lastAcceptEv",
            "__ZN6String4trimEv",
            "__ZN8KeyEvent14f_VK_SEPARATOREv",
            "__ZN9DigitList15getStringBufferEv",
            "__ZN13CompositeType7f_DstInEv",
            "__ZN12EntityPlayer10entityInitEv",
            "__ZN9Hashtable10f_entrySetEv",
            "__ZN10AppContext25addPropertyChangeListenerE6String22PropertyChangeListener",
            "__ZN15AttributeValues11getTrackingEv",
            "__ZN13MenuComponent6f_fontEv",
            "__ZN17DropTargetContext12dropCompleteEb",
            "__ZN7NBTBase9getStringEv",
            "__ZN11TimerThread7f_queueEv",
            "__ZN6Dialog16f_blockedWindowsEv",
            "__ZN13SunGraphics2D10f_fillpipeEv",
            "__ZN5Block17f_soundTypeGravelEv",
            "__ZN21C16PacketClientStatus15writePacketDataE12PacketBuffer",
            "__ZN13RenderManager17f_entityRenderMapEv",
            "__ZN14ResolvedModule10descriptorEv",
            "__ZN6Method12getModifiersEv",
            "__ZN16BlockStateMapper24registerBlockStateMapperE5Block12IStateMapper",
            "__ZN24PageAttributes_MediaType18f_I_ITALY_ENVELOPEEv",
            "__ZN13DecimalFormat23f_serialVersionOnStreamEv",
            "__ZN25AbstractSelectableChannel16implCloseChannelEv",
            "__ZN11ThreadGroup9interruptEv",
            "__ZN22S08PacketPlayerPosLook8getPitchEv",
            "__ZN14RenderingHints24f_KEY_RESOLUTION_VARIANTEv",
            "__ZN16IntegratedServer11setGameTypeE22WorldSettings_GameType",
            "__ZN9PopupMenu4showE9Componentii",
            "__ZN18ScopedMemoryAccess26getAndBitwiseOrCharAcquireE24ScopedMemoryAccess_Scope6Objectlc",
            "__ZN6Path2D8containsE12PathIteratordd",
            "__ZN12ClassVisitor15visitInnerClassE6StringS0_S0_i",
            "__ZN12CalendarDate8addHoursEi",
            "__ZN12GlyphMetrics6getLSBEv",
            "__ZN18AccessibleRelation6getKeyEv",
            "__ZN20MethodHandles_Lookup22makeHiddenClassDefinerE5arr_B",
            "__ZN13CombatTracker13func_180134_fEv",
            "__ZN13PriorityQueue8containsE6Object",
            "__ZN9PathPoint8hashCodeEv",
            "__ZN16ClassSpecializer11classBCNameE6String",
            "__ZN13PriorityQueue11spliteratorEv",
            "__ZN13StreamEncoder21forOutputStreamWriterE12OutputStream6Object7Charset",
            "__ZN13BufferedImage9getHeightEv",
            "__ZN12PacketBuffer8setBytesEi10ByteBuffer",
            "__ZN12EntityPlayer11dropOneItemEb",
            "__ZN10LinkedList7indexOfE6Object",
            "__ZN7MapData11f_dimensionEv",
            "__ZN8Vector4f5scaleEf",
            "__ZN10BigDecimal15shortValueExactEv",
            "__ZN10JsonReader23f_NUMBER_CHAR_EXP_DIGITEv",
            "__ZN17BlockLog_EnumAxis8toStringEv",
            "__ZN21MimeTypeParameterList3getE6String",
            "__ZN7ByteBuf8setBytesEiS_",
            "__ZN11ClassWriter16f_signatureIndexEv",
            "__ZN13SunGraphics2D9drawImageE5Imageiiii5Color13ImageObserver",
            "__ZN20DecimalFormatSymbols18initializeCurrencyE6Locale",
            "__ZN13URLConnection23getAllowUserInteractionEv",
            "__ZN11EntityHorse12setJumpPowerEi",
            "__ZN9Character15codePointBeforeE5arr_Cii",
            "__ZN6Raster13f_sampleModelEv",
            "__ZN24SunDropTargetContextPeer13f_STATUS_WAITEv",
            "__ZN19InventoryEnderChest18saveInventoryToNBTEv",
            "__ZN13S34PacketMaps13processPacketE21INetHandlerPlayClient",
            "__ZN21S19PacketEntityStatus9getOpCodeEv",
            "__ZN5World16canBlockBePlacedE5Block8BlockPosb10EnumFacing6Entity9ItemStack",
            "__ZN5oatpp3web8protocol4http8outgoing8ResponseC2ERKNS2_6StatusERKNSt3__110shared_ptrINS3_4BodyEEE",
            "__ZN9Component32clearCurrentFocusCycleRootOnHideEv",
            "__ZN20AccessControlContext11getCombinerEv",
            "__ZN10BigDecimal8multiplyES_",
            "__ZN13DecimalFormat17f_PATTERN_PERCENTEv",
            "__ZN11EntityHorse12getChestSizeEv",
            "__ZN17DateTimeFormatter18withResolverFieldsE23TemporalField_interface",
            "__ZN16ClassSpecializer18f_transformMethodsEv",
            "__ZN9WorldType11f_worldTypeEv",
            "__ZN14EntityPlayerSP8onUpdateEv",
            "__ZN24ModuleDescriptor_Builder7versionE24ModuleDescriptor_Version",
            "__ZThn8_N5oatpp7network3tcp10ConnectionD0Ev",
            "__ZN9Component21calculateCurrentShapeEv",
            "__ZN4Item9hasEffectE9ItemStack",
            "__ZN17Rectangle2D_Float7isEmptyEv",
            "__ZN24LambdaForm_NamedFunction19invokeWithArgumentsE16Object_interface",
            "__ZN20NetHandlerPlayServer13func_183006_bE15C03PacketPlayer",
            "__ZN14TreeMap_KeySet10comparatorEv",
            "__ZN10LambdaForm15isMatchingIdiomEi6Stringi",
            "__ZN13URLConnection17setConnectTimeoutEi",
            "__ZN15AffineTransform6f_typeEv",
            "__ZN15LambdaForm_Name10exprStringEv",
            "__ZN12PotionEffect15f_showParticlesEv",
            "__ZN5World15getActualHeightEv",
            "__ZN20S0EPacketSpawnObject6f_typeEv",
            "__ZN9Component23revalidateSynchronouslyEv",
            "__ZN8Calendar9f_lenientEv",
            "__ZN4Menu6insertE8MenuItemi",
            "__ZN8KeyEvent7f_VK_F4Ev",
            "__ZN6Socket22getRemoteSocketAddressEv",
            "__ZN16EntityBodyHelper19f_prevRenderYawHeadEv",
            "__ZN22WorldSettings_GameType5getIDEv",
            "__ZN17NetworkPlayerInfo13getPlayerTeamEv",
            "__ZN3URI12f_H_RESERVEDEv",
            "__ZN13PriorityQueue8removeAtEi",
            "__ZN16LambdaFormEditor10f_BIND_ARGEv",
            "__ZN12VillageSiege4tickEv",
            "__ZN12ValidatePipe9copyImageE13SunGraphics2D5Imageii5Color13ImageObserver",
            "__ZN12BiomeGenBase6f_hellEv",
            "__ZN20ChunkRenderContainer13f_viewEntityZEv",
            "__ZN19NumericShaper_Range12getDigitBaseEv",
            "__ZN10MethodType30explicitCastEquivalentToAsTypeE5ClassS0_",
            "__ZN17ConcurrentHashMap8casTabAtE32ConcurrentHashMap_Node_interfacei22ConcurrentHashMap_NodeS1_",
            "__ZN14EntityFireball12f_ticksInAirEv",
            "__ZN11EntityHorse19f_prevMouthOpennessEv",
            "__ZN15ItemModelMesher15getParticleIconE4Item",
            "__ZN6Font2D19getMissingGlyphCodeEv",
            "__ZN17IdentityArrayList6removeE6Object",
            "__ZN17NetworkPlayerInfo15getLocationSkinEv",
            "__ZN18ScopedMemoryAccess34getAndBitwiseOrByteAcquireInternalE24ScopedMemoryAccess_Scope6Objectlh",
            "__ZN13Authenticator5resetEv",
            "__ZN8Ordering9explicit_E4List",
            "__ZN9Component18firePropertyChangeE6Stringcc",
            "__ZN7Instant10plusMillisEl",
            "__ZN9WorldInfo16f_borderSafeZoneEv",
            "__ZN12PotionEffect8onUpdateE16EntityLivingBase",
            "__ZN10ServerData14f_resourceModeEv",
            "__ZN14EntityPlayerSP10isSneakingEv",
            "__ZN6Random4intsEl",
            "__ZN14AlphaComposite9f_DstAtopEv",
            "__ZN14OffsetDateTime8withNanoEi",
            "__ZN8KeyEvent6f_VK_VEv",
            "__ZN5oatpp6parser5Caret16skipCharsFromSetEPKcl",
            "__ZN8StatBase13func_150953_bE5Class",
            "__ZN13PlayerManager9addPlayerE14EntityPlayerMP",
            "__ZN13MethodVisitor24visitParameterAnnotationEi6Stringb",
            "__ZN5Block12getStateByIdEi",
            "__ZN17CharToGlyphMapper9f_VSS_ENDEv",
            "__ZN11TextHitInfo12beforeOffsetEi",
            "__ZN17ObjectInputStream8f_closedEv",
            "__ZN5oatpp3web3url7mapping7Pattern5matchERKNS_4data5share14StringKeyLabelERNS3_8MatchMapE",
            "__ZN6Entity14f_lastTickPosZEv",
            "__ZN10FontFamily12f_bolditalicEv",
            "__ZN10BigDecimal21f_HALF_LONG_MAX_VALUEEv",
            "__ZN12MethodHandle11debugStringEv",
            "__ZN5Month19firstMonthOfQuarterEv",
            "__ZN22ModuleLayer_Controller8addOpensE6Module6StringS0_",
            "__ZN7ByteBuf11readerIndexEi",
            "__ZN12PacketBuffer10writeBytesE5arr_B",
            "__ZN6Period8getYearsEv",
            "__ZN30ObjectOutputStream_HandleTable6lookupE6Object",
            "__ZN10DateFormat6equalsE6Object",
            "__ZN14SurfaceManager14getImageScaleXE5Image",
            "__ZN4File15getPrefixLengthEv",
            "__ZN13Configuration14resolveAndBindE12ModuleFinderS0_10Collection",
            "__ZN15MinecraftServer21getPlayerProfileCacheEv",
            "__ZN11WorldServer12updateBlocksEv",
            "__ZN13JobAttributes14setDestinationE29JobAttributes_DestinationType",
            "__ZN18ScopedMemoryAccess39compareAndExchangeDoubleReleaseInternalE24ScopedMemoryAccess_Scope6Objectldd",
            "__ZN5Block26setBlockBoundsBasedOnStateE12IBlockAccess8BlockPos",
            "__ZN17ObjectStreamClass9f_isProxyEv",
            "__ZN16HashMap_TreeNode4findEi6Object5Class",
            "__ZN10BigInteger31f_PRIME_SEARCH_BIT_LENGTH_LIMITEv",
            "__ZN14CalendarSystem13getYearLengthE12CalendarDate",
            "__ZN6Raster30createCompatibleWritableRasterEv",
            "__ZN19EnumWorldBlockLayer13f_TRANSLUCENTEv",
            "__ZN4Slot18f_xDisplayPositionEv",
            "__ZN6Unsafe15getCharVolatileE6Objectl",
            "__ZN7Integer9byteValueEv",
            "__ZN6Parsed17resolveTimeFieldsEv",
            "__ZN9Character12toSurrogatesEi5arr_Ci",
            "__ZN6Dialog9addNotifyEv",
            "__ZN13PriorityQueue7isClearE5arr_Ji",
            "__ZN6Buffer12nextPutIndexEi",
            "__ZN14NBTTagCompound9getKeySetEv",
            "__ZN18ScopedMemoryAccess27getAndBitwiseAndCharAcquireE24ScopedMemoryAccess_Scope6Objectlc",
            "__ZN20PermissionCollection7impliesE10Permission",
            "__ZN5oatpp4data6stream12ReadCallback23readSomeDataAsyncInlineERNS0_6buffer14InlineReadDataEONS_5async6ActionE",
            "__ZN13IsoChronology16resolveYearOfEraE3Map13ResolverStyle",
            "__ZN13SunGraphics2D19f_TRANSFORM_GENERICEv",
            "__ZN11FloatBuffer8toStringEv",
            "__ZN10BigDecimal7doRoundEli11MathContext",
            "__ZN11GsonBuilder16f_prettyPrintingEv",
            "__ZN17HttpURLConnection20f_HTTP_PRECON_FAILEDEv",
            "__ZN5oatpp4data6buffer8IOBuffer7getSizeEv",
            "__ZN15InventoryPlayer11f_itemStackEv",
            "__ZN5Event6f_whenEv",
            "__ZN8Graphics8fillOvalEiiii",
            "__ZN6BitSet14previousSetBitEi",
            "__ZN15InvocationEvent19finishedDispatchingEb",
            "__ZN11SurfaceData15f_clipColorPipeEv",
            "__ZN7EnumSet6addAllEv",
            "__ZN15LambdaForm_Kind18f_PUT_INT_VOLATILEEv",
            "__ZN16EntityLivingBase9knockBackE6Entityfdd",
            "__ZN28ClassSpecializer_SpeciesData11speciesCodeEv",
            "__ZN9LocalDate4withE13TemporalFieldl",
            "__ZN4Slot17getItemStackLimitE9ItemStack",
            "__ZN5Clock14currentInstantEv",
            "__ZN16AccessibleBundle15toDisplayStringE6String6Locale",
            "__ZN17ObjectStreamClass16getPrivateMethodE5Class6String15Class_interfaceS0_",
            "__ZN11WindowEvent16f_WINDOW_CLOSINGEv",
            "__ZN7ByteBuf11arrayOffsetEv",
            "__ZN18GuiStreamIndicator16f_field_152444_dEv",
            "__ZN42AbstractQueuedSynchronizer_ConditionObject9signalAllEv",
            "__ZN14EntityFireball15getMotionFactorEv",
            "__ZN11ShaderGroup10initTargetE11JsonElement",
            "__ZN13CompositeType16f_DESC_ANY_ALPHAEv",
            "__ZN13SunGraphics2D14invalidatePipeEv",
            "__ZN14EntityFishHook27f_fishPosRotationIncrementsEv",
            "__ZN11RenderLoops14f_drawLineLoopEv",
            "__ZN6Locale13f_languageTagEv",
            "__ZN7Integer12reverseBytesEi",
            "__ZN10JsonWriter5valueE6String",
            "__ZN5Block16isVisuallyOpaqueEv",
            "__ZN20NetHandlerPlayServer22processPlayerAbilitiesE24C13PacketPlayerAbilities",
            "__ZN7VarForm15initMethodTypesE5Class15Class_interface",
            "__ZN14CharsetEncoder6encodeE10CharBuffer",
            "__ZN3CRL6f_typeEv",
            "__ZN14EntityPlayerSP19f_lastReportedPitchEv",
            "__ZN23ShaderLoader_ShaderType10f_FRAGMENTEv",
            "__ZN17ReflectionFactory20getReflectionFactoryEv",
            "__ZN12PacketBuffer9readBytesE7ByteBufii",
            "__ZN11Constructor22getAnnotatedReturnTypeEv",
            "__ZN16BaseAttributeMap16f_field_180377_cEv",
            "__ZN10MemberName22f_RECOGNIZED_MODIFIERSEv",
            "__ZN16LocaleExtensions20getUnicodeLocaleKeysEv",
            "__ZN10BigInteger19shiftLeftImplWorkerE5arr_IS0_iii",
            "__ZN14S3EPacketTeams15writePacketDataE12PacketBuffer",
            "__ZN10FileSystem15createDirectoryE4File",
            "__ZN5Field21checkCanSetAccessibleE5Class",
            "__ZN11MidiMessage9getLengthEv",
            "__ZN11PrintStream7printlnEb",
            "__ZN9ArrayList15replaceAllRangeE13UnaryOperatorii",
            "__ZN6Cursor18f_serialVersionUIDEv",
            "__ZN9FillSpans6locateE11SurfaceType13CompositeTypeS0_",
            "__ZN20SoundSystemException14f_LIBRARY_NULLEv",
            "__ZN17HoverEvent_Action18f_SHOW_ACHIEVEMENTEv",
            "__ZN14FontStrikeDesc10f_AA_LCD_VEv",
            "__ZN17DateTimeFormatter5parseE12CharSequence13TemporalQuery",
            "__ZN7Pattern5curlyE12Pattern_Nodei",
            "__ZN16EntityLivingBase22onFinishedPotionEffectE12PotionEffect",
            "__ZN8FillRect12f_primTypeIDEv",
            "__ZN4Long7compareEll",
            "__ZN20AccessControlContext16checkPermission2E10Permission",
            "__ZN22RecordComponentVisitor14visitAttributeE9Attribute",
            "__ZN17ReflectionFactory17newMethodAccessorE6Method",
            "__ZN21MimeTypeParameterList5quoteE6String",
            "__ZN6Region15getSpanIteratorE5arr_I",
            "__ZN10JsonObject6equalsE6Object",
            "__ZN13ModelRenderer8addChildES_",
            "__ZN12BiomeGenBase7f_riverEv",
            "__ZN18ScopedMemoryAccess22getCharAcquireInternalE24ScopedMemoryAccess_Scope6Objectl",
            "__ZN5oatpp6parser4json10Beautifier5writeEPKvlRNS_5async6ActionE",
            "__ZN7Pattern9setcursorEi",
            "__ZN13SunGraphics2D12f_strokeHintEv",
            "__ZN5oatpp7network3Url6Parser16parseQueryParamsERNS_4data5share21LazyStringMapTemplateINS4_14StringKeyLabelENSt3__118unordered_multimapIS6_S6_NS7_4hashIS6_EENS7_8equal_toIS6_EENS7_9allocatorINS7_4pairIKS6_S6_EEEEEEEERNS_6parser5CaretE",
            "__ZN13BufferedImage18f_DCM_555_BLU_MASKEv",
            "__ZN22ResourcePackRepository23getResourcePackInstanceEv",
            "__ZN11SurfaceData11f_paintTextEv",
            "__ZN5oatpp4data7mapping4type7__class5UInt87getTypeEv",
            "__ZN16LambdaFormEditor14oldSpeciesDataEv",
            "__ZN12MethodWriter13visitIincInsnEii",
            "__ZN16SimpleDateFormat21applyLocalizedPatternE6String",
            "__ZN25IndexOutOfBoundsException18f_serialVersionUIDEv",
            "__ZN13RenderManager14setPlayerViewYEf",
            "__ZN11ClassWriter5visitEii6StringS0_S0_16String_interface",
            "__ZN24AnimationMetadataSection13f_frameHeightEv",
            "__ZN22GraphicsConfigTemplate18f_serialVersionUIDEv",
            "__ZN12PacketBuffer16readUnsignedByteEv",
            "__ZN19ChunkProviderServer18f_droppedChunksSetEv",
            "__ZN6BitSet6lengthEv",
            "__ZN17DateFormatSymbols15f_PATTERN_AM_PMEv",
            "__ZN14FontStrikeDesc6equalsE6Object",
            "__ZN8Optional2ofE6Object",
            "__ZN11WeakHashMap6f_sizeEv",
            "__ZN40ObjectOutputStream_BlockDataOutputStream5writeEi",
            "__ZN10OffsetTime7getHourEv",
            "__ZN17ObjectStreamClass12getLocalDescEv",
            "__ZN15LanguageManager23f_theMetadataSerializerEv",
            "__ZN11ThreadLocal18createInheritedMapE26ThreadLocal_ThreadLocalMap",
            "__ZN10DataFlavor37getDefaultRepresentationClassAsStringEv",
            "__ZN10MemberName8isBridgeEv",
            "__ZN5Event13f_KEY_RELEASEEv",
            "__ZN21LoadingScreenRenderer19displaySavingStringE6String",
            "__ZN16EnumCreatureType18f_creatureMaterialEv",
            "__ZN12EntityPlayer6isUserEv",
            "__ZN13ZonedDateTime8f_offsetEv",
            "__ZN6Entity11f_ZERO_AABBEv",
            "__ZN6Entity16f_entityUniqueIDEv",
            "__ZN9Container12f_playerListEv",
            "__ZN20ZoneOffsetTransition2ofE13LocalDateTime10ZoneOffsetS1_",
            "__ZN19EnumWorldBlockLayer8toStringEv",
            "__ZN22S08PacketPlayerPosLook16f_field_179835_fEv",
            "__ZN6Matrix13loadTransposeE11FloatBuffer",
            "__ZN20Splitter_MapSplitter23f_INVALID_ENTRY_MESSAGEEv",
            "__ZN6Method13setAccessibleEb",
            "__ZN5Event5f_F11Ev",
            "__ZN15AttributeValues7fromMapE3Mapi",
            "__ZN15MinecraftServer23createNewCommandManagerEv",
            "__ZN10EntityItem7f_ownerEv",
            "__ZN12RenderGlobal11f_glSkyListEv",
            "__ZN9Explosion11f_isFlamingEv",
            "__ZN7Polygon15calculateBoundsE5arr_IS0_i",
            "__ZN16DataOutputStream4sizeEv",
            "__ZN6Window22initDeserializedWindowEv",
            "__ZN11MidiChannel10sourcenameEb6String",
            "__ZN30BlockDoublePlant_EnumPlantType10byMetadataEi",
            "__ZN10ByteBuffer3getEi5arr_Bii",
            "__ZN14InventoryBasic14getStackInSlotEi",
            "__ZN5Chunk16setInhabitedTimeEl",
            "__ZN11JsonElement15getAsJsonObjectEv",
            "__ZN4Item17registerItemBlockE5Block",
            "__ZN6Potion8f_hungerEv",
            "__ZN8FillPath6locateE11SurfaceType13CompositeTypeS0_",
            "__ZN15AffineTransform25getQuadrantRotateInstanceEidd",
            "__ZN19S2DPacketOpenWindow10f_windowIdEv",
            "__ZN10EAttribute7valueOfE6String",
            "__ZN9LocalDate7getLongE13TemporalField",
            "__ZN12Path2D_Float5cloneEv",
            "__ZN16HashMap_TreeNode7treeifyE22HashMap_Node_interface",
            "__ZN16EntityMoveHelper8f_entityEv",
            "__ZN27SoundEventAccessorComposite19addSoundToEventPoolE19ISoundEventAccessor",
            "__ZN12BiomeGenBase13f_frozenOceanEv",
            "__ZN13SunGraphics2D9translateEdd",
            "__ZN24LambdaForm_NamedFunction8f_memberEv",
            "__ZN5oatpp6parser5Caret5Label14getEndPositionEv",
            "__ZN16SurfaceDataProxy5flushEv",
            "__ZN20GameSettings_Options14f_CHAT_OPACITYEv",
            "__ZN6Window13getAllWindowsEv",
            "__ZN24PageAttributes_MediaType10f_I_ISO_B9Ev",
            "__ZN9Component22addMouseMotionListenerE19MouseMotionListener",
            "__ZN10MouseEvent14f_popupTriggerEv",
            "__ZN14PropertyHelper6equalsE6Object",
            "__ZN12GlyphMetrics10f_advanceXEv",
            "__ZN15MinecraftServer8f_randomEv",
            "__ZN17ObjectInputStream7readIntEv",
            "__ZN12RoundingMode6f_DOWNEv",
            "__ZN5oatpp4base11Environment22printCompilationConfigEv",
            "__ZN15LambdaForm_Kind10f_GET_LONGEv",
            "__ZN8Splitter21withKeyValueSeparatorES_",
            "__ZN6Entity19isInvisibleToPlayerE12EntityPlayer",
            "__ZN13SunGraphics2D6f_fontEv",
            "__ZN31PageAttributes_PrintQualityType9f_I_DRAFTEv",
            "__ZN24PageAttributes_MediaType10f_I_ISO_C8Ev",
            "__ZN8KeyEvent14f_VK_PAGE_DOWNEv",
            "__ZN18AccessibleRelation21f_FLOWS_FROM_PROPERTYEv",
            "__ZN26ServerConfigurationManager33sendPacketToAllPlayersInDimensionE6Packeti",
            "__ZN18S00PacketKeepAlive14readPacketDataE12PacketBuffer",
            "__ZN4Date8getHoursEv",
            "__ZN8Calendar18getWeeksInWeekYearEv",
            "__ZN11RenderLoops23f_drawParallelogramLoopEv",
            "__ZN7Pattern10readObjectE17ObjectInputStream",
            "__ZN11FloatBuffer8allocateEi",
            "__ZN8Currency42f_SIMPLE_CASE_COUNTRY_DEFAULT_DIGITS_SHIFTEv",
            "__ZN9Component27processHierarchyBoundsEventE14HierarchyEvent",
            "__ZN31EntityPlayer_EnumChatVisibility14getResourceKeyEv",
            "__ZN18C02PacketUseEntity9getActionEv",
            "__ZN10EnumAction7f_DRINKEv",
            "__ZN12NumberFormat23setMinimumIntegerDigitsEi",
            "__ZN7ByteBuf11forEachByteEii16ByteBufProcessor",
            "__ZN13NumericShaper14f_ETHIOPIC_KEYEv",
            "__ZN4Item14f_potionEffectEv",
            "__ZN10ColorSpace12f_TYPE_YCbCrEv",
            "__ZN11MidiChannel13f_fadeOutGainEv",
            "__ZN14PlatformLogger7getNameEv",
            "__ZN5Field8getShortE6Object",
            "__ZN8KeyEvent9f_VK_FINDEv",
            "__ZN7Pattern7SingleIEii",
            "__ZN24PageAttributes_MediaType10f_I_JIS_B6Ev",
            "__ZN8Provider20f_ALIAS_PREFIX_LOWEREv",
            "__ZN12FieldVisitor14visitAttributeE9Attribute",
            "__ZN18ScopedMemoryAccess20getAndBitwiseXorLongE24ScopedMemoryAccess_Scope6Objectll",
            "__ZN11CharMatcher7isSmallEii",
            "__ZN11SurfaceType11f_unusedUIDEv",
            "__ZN6Insets3setEiiii",
            "__ZN14RenderingHints3putE6ObjectS0_",
            "__ZN17MutableBigInteger12copyAndShiftE5arr_IiiS0_ii",
            "__ZN18ForwardingMultimap4keysEv",
            "__ZN10MemberName12f_resolutionEv",
            "__ZN21LightweightDispatcher18retargetMouseEventE9Componenti10MouseEvent",
            "__ZN9Character7compareEcc",
            "__ZN7Charset12isRegisteredEv",
            "__ZN9BakedQuad12hasTintIndexEv",
            "__ZN16AbstractSelector6cancelE12SelectionKey",
            "__ZN14AccessibleRole12f_SPLIT_PANEEv",
            "__ZN12ServerSocket6f_implEv",
            "__ZN24S49PacketUpdateEntityNBT13processPacketE21INetHandlerPlayClient",
            "__ZN4Long6f_TYPEEv",
            "__ZN5Image22f_accelerationPriorityEv",
            "__ZN5World13func_181544_bEi",
            "__ZN10DropTarget12setFlavorMapE9FlavorMap",
            "__ZN13StringBuilder6appendE5arr_C",
            "__ZN10ColorModel15f_lg16Toog16MapEv",
            "__ZN12EntityPlayer17isMovementBlockedEv",
            "__ZN18GuiStreamIndicator25f_locationStreamIndicatorEv",
            "__ZN13WorldSettings17f_hardcoreEnabledEv",
            "__ZN18LinkedTreeMap_Node8f_heightEv",
            "__ZN33GraphicsDevice_WindowTranslucency22f_PERPIXEL_TRANSPARENTEv",
            "__ZN8BlockPos4eastEi",
            "__ZN4Long11toHexStringEl",
            "__ZN17ReflectionFactory28f_hasStaticInitializerMethodEv",
            "__ZN6Entity12f_isAirBorneEv",
            "__ZN9IntBuffer8toStringEv",
            "__ZN11ThreadLocal15setInitialValueEv",
            "__ZN10EntityItem14setPickupDelayEi",
            "__ZN14EntityPlayerSP17getStatFileWriterEv",
            "__ZN5Float19resolveConstantDescE20MethodHandles_Lookup",
            "__ZN10Scoreboard18getScoreObjectivesEv",
            "__ZN19C12PacketUpdateSign5f_posEv",
            "__ZN8ItemFood10f_potionIdEv",
            "__ZN15LambdaForm_Name11debugStringEv",
            "__ZN7ByteBuf8capacityEi",
            "__ZN5Class16getCanonicalNameEv",
            "__ZN6Unsafe29getAndBitwiseOrBooleanAcquireE6Objectlb",
            "__ZN14AnnotationType13f_memberTypesEv",
            "__ZN13Configuration7modulesEv",
            "__ZN5World15playSoundEffectEddd6Stringff",
            "__ZN24SunDropTargetContextPeer13f__globalLockEv",
            "__ZN10ModelBiped10f_aimedBowEv",
            "__ZN14EntityFireball13getBrightnessEf",
            "__ZN14NBTTagCompound8setFloatE6Stringf",
            "__ZN11ClassWriter34visitPermittedSubclassExperimentalE6String",
            "__ZN11InetAddress6equalsE6Object",
            "__ZN16EntityLivingBase19f_randomYawVelocityEv",
            "__ZN4Item31shouldRotateAroundWhenRenderingEv",
            "__ZN12FontRenderer13f_randomStyleEv",
            "__ZN16DataOutputStream12writeBooleanEb",
            "__ZN11SoundSystem15CommandActivateE6String",
            "__ZN18PlayerControllerMP22f_stepSoundTickCounterEv",
            "__ZN6Unsafe31weakCompareAndSetBooleanReleaseE6Objectlbb",
            "__ZN17ReflectionFactory14f_soleInstanceEv",
            "__ZN7Village22setReputationForPlayerE6Stringi",
            "__ZN11SymbolTable15addTypeInternalE17SymbolTable_Entry",
            "__ZN9Component7f_widthEv",
            "__ZN5oatpp8encoding3Hex11writeUInt16EtPh",
            "__ZN18TextureAtlasSprite15generateMipmapsEi",
            "__ZN15AttributeValues15extractRotationE14Point2D_Double15AffineTransformb",
            "__ZN12ItemRenderer13func_178104_aE20AbstractClientPlayerf",
            "__ZN13SunGraphics2D8drawOvalEiiii",
            "__ZN20AbstractClientPlayer11getSkinTypeEv",
            "__ZN11SoundSystem17CommandSetLoopingE6Stringb",
            "__ZN17ReflectionFactory15copyConstructorE11Constructor",
            "__ZN13SunGraphics2D11f_imageCompEv",
            "__ZN11Constructor26acquireConstructorAccessorEv",
            "__ZN16AbstractCalendar22getDayOfWeekDateBeforeEli",
            "__ZN9GuiIngame13renderTooltipE16ScaledResolutionf",
            "__ZN12EntityAnimal8f_inLoveEv",
            "__ZN14NBTTagCompound6hasKeyE6Stringi",
            "__ZN3URI6createE6String",
            "__ZN20GameSettings_Options16f_USE_FULLSCREENEv",
            "__ZN9WorldType15getCanBeCreatedEv",
            "__ZN10DragSource20isDragImageSupportedEv",
            "__ZN18DifficultyInstance30getClampedAdditionalDifficultyEv",
            "__ZN5oatpp4data7mapping4type10BaseObject8Property8getAsRefEPS3_",
            "__ZN9Minecraft13f_mouseHelperEv",
            "__ZN13SunGraphics2D12setCompositeE9Composite",
            "__ZN18ScopedMemoryAccess6putIntE24ScopedMemoryAccess_Scope6Objectli",
            "__ZN5oatpp4data6stream25DefaultInitializedContextC2ENS1_10StreamTypeEONS0_5share21LazyStringMapTemplateINS4_14StringKeyLabelENSt3__113unordered_mapIS6_S6_NS7_4hashIS6_EENS7_8equal_toIS6_EENS7_9allocatorINS7_4pairIKS6_S6_EEEEEEEE",
            "__ZN9Container7getSlotEi",
            "__ZN11ChunkPrimer14f_defaultStateEv",
            "__ZN11WorldServer18f_theEntityTrackerEv",
            "__ZN5oatpp3web6server7handler12ErrorHandler11handleErrorERKNS0_8protocol4http6StatusERKNS_4data7mapping4type6StringE",
            "__ZN10LambdaForm17compileToBytecodeEv",
            "__ZN15IdentityHashMap10f_NULL_KEYEv",
            "__ZN11ClassWriter22f_numberOfInnerClassesEv",
            "__ZN15CalendarBuilder19toCalendarDayOfWeekEi",
            "__ZN12RoundingMode7f_FLOOREv",
            "__ZN9Component18firePropertyChangeE6Stringss",
            "__ZN15FontLineMetrics5f_frcEv",
            "__ZN9Character37f_DIRECTIONALITY_RIGHT_TO_LEFT_ARABICEv",
            "__ZN26ObjectInputStream_GetField20getObjectStreamClassEv",
            "__ZN27C19PacketResourcePackStatus8f_statusEv",
            "__ZN6String10malformed3E5arr_Bi",
            "__ZN14EffectRenderer24registerVanillaParticlesEv",
            "__ZN10SocketImpl14getInputStreamEv",
            "__ZN10DateFormat14f_numberFormatEv",
            "__ZN16ModuleDescriptor4nameEv",
            "__ZN8Graphics9drawImageE5Imageiiii13ImageObserver",
            "__ZN20DecimalFormatSymbols9f_perMillEv",
            "__ZN12BaseCalendar10isLeapYearE12CalendarDate",
            "__ZN13AtomicInteger9setOpaqueEi",
            "__ZN19LinkedHashMap_Entry8f_beforeEv",
            "__ZN12RoundingMode7valueOfE6String",
            "__ZN8Calendar11f_SEPTEMBEREv",
            "__ZN6Symbol17f_MERGED_TYPE_TAGEv",
            "__ZN27ReentrantReadWriteLock_Sync8getCountEv",
            "__ZN6Font2D8f_handleEv",
            "__ZN17AnnotationVisitor15visitAnnotationE6StringS0_",
            "__ZN8Calendar19getDisplayNamesImplEii6Locale",
            "__ZN11GsonBuilder6createEv",
            "__ZN19VertexFormatElement8getIndexEv",
            "__ZN24LambdaForm_NamedFunction7invokerEv",
            "__ZN4Font22f_LAYOUT_LEFT_TO_RIGHTEv",
            "__ZN12StreamThread12errorMessageE6String",
            "__ZN10DropTarget12setComponentE9Component",
            "__ZN18Rectangle2D_Double18f_serialVersionUIDEv",
            "__ZN20MethodHandles_Lookup27ensureDefineClassPermissionEv",
            "__ZN7Library9quickPlayEbbb6String11FilenameURLfffifb",
            "__ZN10FileSystem16getDefaultParentEv",
            "__ZN6Unsafe8putFloatElf",
            "__ZN5Block14getItemDroppedE11IBlockState6Randomi",
            "__ZN14Gregorian_Date17getNormalizedYearEv",
            "__ZN7TreeMap7rightOfE13TreeMap_Entry",
            "__ZNK5oatpp4data6buffer10FIFOBuffer16availableToWriteEv",
            "__ZN12MethodHandle18internalPropertiesEv",
            "__ZN8Material6f_woodEv",
            "__ZN8MenuItem10f_shortcutEv",
            "__ZN15AffineTransform10setToShearEdd",
            "__ZN28ClassSpecializer_SpeciesData16f_nominalGettersEv",
            "__ZN13NumericShaper12f_DEVANAGARIEv",
            "__ZN8Calendar6beforeE6Object",
            "__ZN17NetworkPlayerInfo15hasLocationSkinEv",
            "__ZN5Class14getConstructorE15Class_interface",
            "__ZN18ScopedMemoryAccess18copyMemoryInternalE24ScopedMemoryAccess_ScopeS0_6ObjectlS1_ll",
            "__ZN12GameSettings17f_thirdPersonViewEv",
            "__ZN12MethodWriter16f_hasSubroutinesEv",
            "__ZN8Vector3f18f_serialVersionUIDEv",
            "__ZN27SoundEventAccessorComposite9getWeightEv",
            "__ZN20NetHandlerPlayClient18handleResourcePackE25S48PacketResourcePackSend",
            "__ZN10DragSource9startDragE16DragGestureEvent6Cursor12Transferable18DragSourceListener",
            "__ZN18ScopedMemoryAccess14getAndSetFloatE24ScopedMemoryAccess_Scope6Objectlf",
            "__ZN6Entity8setInWebEv",
            "__ZN28ConcurrentHashMap_KeySetView8iteratorEv",
            "__ZN9Container11f_dragEventEv",
            "__ZN6Number9byteValueEv",
            "__ZN13WorldProvider13f_dimensionIdEv",
            "__ZN5Block15colorMultiplierE12IBlockAccess8BlockPosi",
            "__ZN11LongHashMap17f_numHashElementsEv",
            "__ZN9GuiIngame10getChatGUIEv",
            "__ZN7BanList11createEntryE10JsonObject",
            "__ZN17DateFormatSymbols17f_cachedInstancesEv",
            "__ZN6Window32calculateSecurityWarningPositionEdddd",
            "__ZN12EntityLiving13isServerWorldEv",
            "__ZN21S06PacketUpdateHealth12getFoodLevelEv",
            "__ZN12EntityPlayer19isInvisibleToPlayerES_",
            "__ZN15AffineTransform13getTranslateXEv",
            "__ZN9GuiScreen16f_clickedLinkURIEv",
            "__ZN21DragGestureRecognizer10readObjectE17ObjectInputStream",
            "__ZN13AtomicInteger7lazySetEi",
            "__ZN12EntityPlayer17getItemInUseCountEv",
            "__ZN10DragSource17f_DefaultMoveDropEv",
            "__ZN12CreativeTabs16getIconItemStackEv",
            "__ZN9Character7getNameEi",
            "__ZN13DecimalFormat15setGroupingSizeEi",
            "__ZN13NodeProcessor9openPointEiii",
            "__ZN6BitSet4sizeEv",
            "__ZN15IdentityHashMap6equalsE6Object",
            "__ZN8TimeZone20getSystemGMTOffsetIDEv",
            "__ZN15ScorePlayerTeam26f_canSeeFriendlyInvisiblesEv",
            "__ZN13WorldProvider12isSkyColoredEv",
            "__ZN6Unsafe14putFloatOpaqueE6Objectlf",
            "__ZN10BigDecimal3addEll",
            "__ZN11ClassReader16createDebugLabelEi15Label_interface",
            "__ZN4File12deleteOnExitEv",
            "__ZN9VarHandle15getMethodHandleEi",
            "__ZN6Entity15getCommandStatsEv",
            "__ZN8TimeZone10f_ONE_HOUREv",
            "__ZN12PacketBuffer11writeDoubleEd",
            "__ZN11SurfaceType10f_Any4ByteEv",
            "__ZN18S21PacketChunkData16f_field_149279_gEv",
            "__ZN9Explosion12f_explosionZEv",
            "__ZN16DrawGlyphListLCD12f_primTypeIDEv",
            "__ZN14EntityPlayerMP20setPositionAndUpdateEddd",
            "__ZN11PerfCounter21getReadClassBytesTimeEv",
            "__ZN6Dialog11isResizableEv",
            "__ZN8Provider10implPutAllE3Map",
            "__ZN8TimeUnit7convertElS_",
            "__ZN8Ordering9nullsLastEv",
            "__ZN10DateFormat18f_serialVersionUIDEv",
            "__ZN18ScopedMemoryAccess21putByteOpaqueInternalE24ScopedMemoryAccess_Scope6Objectlh",
            "__ZN16LambdaFormBuffer7endEditEv",
            "__ZN8Graphics12setPaintModeEv",
            "__ZN12VertexFormat13func_181721_aE19VertexFormatElement",
            "__ZN16SocketPermission23newPermissionCollectionEv",
            "__ZN6Entity16f_isImmuneToFireEv",
            "__ZN17NetworkPlayerInfo13func_178857_cEi",
            "__ZN25S35PacketUpdateTileEntity14readPacketDataE12PacketBuffer",
            "__ZN15IdentityHashMap7isEmptyEv",
            "__ZN13StreamEncoder5f_lcbEv",
            "__ZN14ResourceBundle19hasValidParentChainES_",
            "__ZN6Entity12getEyeHeightEv",
            "__ZN14EntityPlayerSP14setClientBrandE6String",
            "__ZN17ObjectStreamClass14checkSerializeEv",
            "__ZN9WorldInfo24setBorderWarningDistanceEi",
            "__ZN10MemberName18f_CONSTRUCTOR_NAMEEv",
            "__ZThn8_N5oatpp4data6stream24InputStreamBufferedProxy20getInputStreamIOModeEv",
            "__ZN7ByteBuf11readBooleanEv",
            "__ZN10AtomicLong3getEv",
            "__ZN8Calendar18f_SHORT_STANDALONEEv",
            "__ZN9Minecraft16toggleFullscreenEv",
            "__ZN10AppContext13getAppContextEv",
            "__ZN7TreeMap10floorEntryE6Object",
            "__ZN24PublicMethods_MethodList6f_nextEv",
            "__ZN16LambdaFormEditor13bindArgumentLE17BoundMethodHandlei6Object",
            "__ZN8Profiler8f_loggerEv",
            "__ZN11SurfaceType8hashCodeEv",
            "__ZN24SunDropTargetContextPeer14f_dropCompleteEv",
            "__ZN6Unsafe15storeStoreFenceEv",
            "__ZN6Entity14f_invulnerableEv",
            "__ZN5Track4sizeEv",
            "__ZN4Menu3addE6String",
            "__ZN14GraphicsDevice24isWindowOpacitySupportedEv",
            "__ZN14RenderingHints33f_VALUE_ALPHA_INTERPOLATION_SPEEDEv",
            "__ZN17HoverEvent_Action13f_SHOW_ENTITYEv",
            "__ZN10CharBuffer12f_isReadOnlyEv",
            "__ZN7Charset11isSupportedE6String",
            "__ZN21AAShapePipe_TileState5f_devEv",
            "__ZN5Float8isFiniteEf",
            "__ZN26AbstractQueuedSynchronizer17getWaitingThreadsE42AbstractQueuedSynchronizer_ConditionObject",
            "__ZN15AttributeValues16getCharTransformEv",
            "__ZN15AttributeValues16getStrikethroughEv",
            "__ZN10EntityItem17canTriggerWalkingEv",
            "__ZN5Block16getLocalizedNameEv",
            "__ZN11PrintStream5printE5arr_C",
            "__ZN21LightweightDispatcher17processMouseEventE10MouseEvent",
            "__ZN10FileSystem9normalizeE6String",
            "__ZN11ClassLoader19getResourceAsStreamE6String",
            "__ZN17FilterInputStream9availableEv",
            "__ZN24PageAttributes_MediaType8f_ISO_B1Ev",
            "__ZN34DateTimeFormatterBuilder_DayPeriod10mapToIndexE6String",
            "__ZN12PacketBuffer10writeShortEi",
            "__ZN10ClassValue9makeEntryE18ClassValue_Version6Object",
            "__ZN10FileSystem18getBooleanPropertyE6Stringb",
            "__ZN9WorldInfo18f_generatorOptionsEv",
            "__ZN11ClassReader10readModuleEi5arr_C",
            "__ZN16AccessibleObject14setAccessible0Eb",
            "__ZN6Module12implAddReadsES_",
            "__ZN12NumberFormat15getRoundingModeEv",
            "__ZN4Perf6attachE6Stringii",
            "__ZN10IntHashMap12f_growFactorEv",
            "__ZN13CommandObject15f_DEQUEUE_SOUNDEv",
            "__ZN6Entity11isInvisibleEv",
            "__ZN19Provider_ServiceKey11f_algorithmEv",
            "__ZN6BitSet14ensureCapacityEi",
            "__ZN17HttpURLConnection18f_HTTP_UNAVAILABLEEv",
            "__ZN18BlockModelRenderer31renderModelBrightnessColorQuadsEffff4List",
            "__ZN6Unsafe26f_ARRAY_OBJECT_INDEX_SCALEEv",
            "__ZN13BufferedImage6f_osisEv",
            "__ZN7Library22removeTemporarySourcesEv",
            "__ZN6Handle8hashCodeEv",
            "__ZN12EntityPlayer20openEditCommandBlockE17CommandBlockLogic",
            "__ZN9Minecraft14f_usageSnooperEv",
            "__ZN12EntityPlayer8addScoreEi",
            "__ZN3URL6f_gateEv",
            "__ZN5Event9translateEii",
            "__ZN7Handler9f_startPcEv",
            "__ZN20GameSettings_Options12getEnumFloatEv",
            "__ZN9Component8containsEii",
            "__ZN9Container15f_transactionIDEv",
            "__ZN13TreeMap_Entry6getKeyEv",
            "__ZN24SunDropTargetContextPeer10rejectDropEv",
            "__ZN4Gson16f_typeTokenCacheEv",
            "__ZN13ZonedDateTime3nowEv",
            "__ZN19ChunkProviderServer22f_serverChunkGeneratorEv",
            "__ZN40ObjectOutputStream_BlockDataOutputStream12writeLongUTFE6Stringl",
            "__ZN13NumericShaper17f_CONTEXTUAL_MASKEv",
            "__ZN20Pattern_CharProperty5studyE16Pattern_TreeInfo",
            "__ZN11SymbolTable20addUninitializedTypeE6Stringi",
            "__ZN12Path2D_Float6appendEdd",
            "__ZN16EntityLivingBase15f_arrowHitTimerEv",
            "__ZN5Event8f_DELETEEv",
            "__ZN5oatpp3web8protocol4http8encoding14DecoderChunked26suggestInputStreamReadSizeEv",
            "__ZN10MemberName8isPublicEv",
            "__ZN24S04PacketEntityEquipment14readPacketDataE12PacketBuffer",
            "__ZN15MinecraftServer15getMaxWorldSizeEv",
            "__ZN14PropertyHelper8toStringEv",
            "__ZN19LinkedHashMap_Entry7f_afterEv",
            "__ZN22ResourcePackRepository19fixDirResourcepacksEv",
            "__ZN12RenderPlayer8doRenderE20AbstractClientPlayerdddff",
            "__ZN14EntityPlayerMP14addChatMessageE14IChatComponent",
            "__ZN8Material6f_sandEv",
            "__ZN15MinecraftServer20getOpPermissionLevelEv",
            "__ZN9Minecraft12f_serverNameEv",
            "__ZN7Pattern11nextEscapedEv",
            "__ZN17ObjectInputStream17f_streamFilterSetEv",
            "__ZN17S01PacketJoinGame14isHardcoreModeEv",
            "__ZN23S36PacketSignEditorOpen14readPacketDataE12PacketBuffer",
            "__ZN12SelectionKey7channelEv",
            "__ZN15C03PacketPlayer8f_movingEv",
            "__ZN16LambdaFormEditor12f_FILTER_ARGEv",
            "__ZN15SecurityManager12checkConnectE6Stringi",
            "__ZN24PageAttributes_MediaType8f_ISO_A0Ev",
            "__ZN25AbstractSelectableChannel7forEachE8Consumer",
            "__ZN9Clipboard17f_flavorListenersEv",
            "__ZN6Socket4bindE13SocketAddress",
            "__ZN14OffsetDateTime10adjustIntoE8Temporal",
            "__ZN14OffsetDateTime7isEqualES_",
            "__ZN7EnumMap13removeMappingE6ObjectS0_",
            "__ZN24PageAttributes_MediaType4f_A3Ev",
            "__ZN12GameSettings15f_showDebugInfoEv",
            "__ZN18FilterOutputStream5closeEv",
            "__ZN9FoodStats21f_foodExhaustionLevelEv",
            "__ZN17ObjectInputStream13readProxyDescEb",
            "__ZN29LambdaFormEditor_TransformKey10withResultE10LambdaForm",
            "__ZN20AccessControlContext12equalContextES_",
            "__ZN14NetworkManager19f_terminationReasonEv",
            "__ZN16EntityLivingBase21f_prevRotationYawHeadEv",
            "__ZN8KeyEvent10f_VK_ENTEREv",
            "__ZN14RenderingHints29f_VALUE_FRACTIONALMETRICS_OFFEv",
            "__ZN4Slot18f_yDisplayPositionEv",
            "__ZN12GameSettings16f_field_183018_lEv",
            "__ZN12VertexBuffer10bindBufferEv",
            "__ZN12VertexFormat11hasUvOffsetEi",
            "__ZN8EntityFX16writeEntityToNBTE14NBTTagCompound",
            "__ZN33DropTarget_DropTargetAutoScroller7f_innerEv",
            "__ZN12CreativeTabs14f_tabTransportEv",
            "__ZN23ThreadDownloadImageData20checkTextureUploadedEv",
            "__ZN16BaseAttributeMap18f_attributesByNameEv",
            "__ZN18ScopedMemoryAccess8isLoadedE24ScopedMemoryAccess_Scopelbl",
            "__ZN9TextStyle20f_zoneNameStyleIndexEv",
            "__ZN16EntityLivingBase17attackEntityAsMobE6Entity",
            "__ZN27S32PacketConfirmTransaction16f_field_148893_cEv",
            "__ZN12RenderGlobal12f_glSkyList2Ev",
            "__ZN7Integer21numberOfTrailingZerosEi",
            "__ZN8Calendar3getEi",
            "__ZN8Calendar9f_OCTOBEREv",
            "__ZN12Path2D_Float6lineToEdd",
            "__ZN16AccessibleObject21checkCanSetAccessibleE5ClassS0_b",
            "__ZN14BiomeDecorator9f_clayGenEv",
            "__ZN11PrintWriter9f_troubleEv",
            "__ZN16SimpleDateFormat8subParseE6Stringiiib5arr_Z13ParsePositionb15CalendarBuilder",
            "__ZN9Dimension18f_serialVersionUIDEv",
            "__ZN16EnumBorderStatus12f_STATIONARYEv",
            "__ZN13SoundCategory7valueOfE6String",
            "__ZN3URL14getDefaultPortEv",
            "__ZN14NBTTagCompound7getByteE6String",
            "__ZN16RectangularShape10getCenterYEv",
            "__ZN24PageAttributes_MediaType8f_ISO_A5Ev",
            "__ZN22C17PacketCustomPayload9f_channelEv",
            "__ZN7TreeMap11higherEntryE6Object",
            "__ZThn8_N5oatpp4data6stream24InputStreamBufferedProxy4peekEPvlRNS_5async6ActionE",
            "__ZN40SunDropTargetContextPeer_EventDispatcher19dispatchMotionEventE18SunDropTargetEvent",
            "__ZN9Minecraft21getPlayerUsageSnooperEv",
            "__ZN5Class13getSuperclassEv",
            "__ZN11CharMatcher12collapseFromE12CharSequencec",
            "__ZN13MessageHeader5printEi16String_interfaceS0_11PrintStream",
            "__ZN12GameSettings26f_keyBindSpectatorOutlinesEv",
            "__ZN28AbstractClassLoaderValue_Sub6parentEv",
            "__ZN10CharBuffer8hasArrayEv",
            "__ZN18ScopedMemoryAccess30weakCompareAndSetDoubleReleaseE24ScopedMemoryAccess_Scope6Objectldd",
            "__ZN5oatpp5utils10conversion20uint64ToCharSequenceEyPhl",
            "__ZN24JobAttributes_DialogType8f_COMMONEv",
            "__ZN10LambdaForm18argumentTypesMatchE6String16Object_interface",
            "__ZN11Enchantment20calcDamageByCreatureEi21EnumCreatureAttribute",
            "__ZN17LocaleObjectCache5f_mapEv",
            "__ZN5Point6equalsE6Object",
            "__ZN13ServiceLoader11checkCallerE5ClassS0_",
            "__ZN4Gson24f_deserializationContextEv",
            "__ZN6Path2D15getPathIteratorE15AffineTransformd",
            "__ZN12PacketBuffer8getBytesEi7ByteBuf",
            "__ZN6Window21f_windowFocusListenerEv",
            "__ZN6Unsafe9makeShortEhh",
            "__ZN18ScopedMemoryAccess27getAndBitwiseXorIntInternalE24ScopedMemoryAccess_Scope6Objectli",
            "__ZN17WorldChunkManager17findBiomePositionEiii4List6Random",
            "__ZN7TreeMap15computeRedLevelEi",
            "__ZN11FontMetrics11stringWidthE6String",
            "__ZN8EntityFX14renderParticleE13WorldRenderer6Entityffffff",
            "__ZN11ChronoField7getFromE16TemporalAccessor",
            "__ZN13EntityAITasks11f_tickCountEv",
            "__ZN21ChunkProviderSettings16f_lavaLakeChanceEv",
            "__ZN16Provider_Service19f_engineDescriptionEv",
            "__ZN20RendererLivingEntity21setDoRenderBrightnessE16EntityLivingBasef",
            "__ZN25Currency_CurrencyProperty13getValidEntryE6StringS0_7Pattern",
            "__ZN16EntityLivingBase19setAbsorptionAmountEf",
            "__ZN13ModuleVisitor12visitPackageE6String",
            "__ZN4Vec38subtractEddd",
            "__ZN20MethodHandles_Lookup8f_PUBLICEv",
            "__ZN5oatpp4data6streamlsERNS1_22ConsistentOutputStreamERKNS0_7mapping4type6StringE",
            "__ZN5Label17f_outputStackSizeEv",
            "__ZN6Socket10getChannelEv",
            "__ZN21GraphicsConfiguration18f_defaultImageCapsEv",
            "__ZN6Window19postProcessKeyEventE8KeyEvent",
            "__ZN11SurfaceType17f_FourByteAbgrPreEv",
            "__ZN21AbstractStringBuilder9compareToES_",
            "__ZN5oatpp4data6stream8transferERKNS_4base12ObjectHandleINS1_12ReadCallbackEEERKNS3_INS1_13WriteCallbackEEExPvlRKNS3_INS0_6buffer9ProcessorEEE",
            "__ZN12EntityPlayer10shouldHealEv",
            "__ZN16IntegratedServer4tickEv",
            "__ZN17LocaleObjectCache17cleanStaleEntriesEv",
            "__ZN5Vec3i4getYEv",
            "__ZN21AbstractStringBuilder6insertEi5arr_Cii",
            "__ZN11ClassLoader30createOrGetClassLoaderValueMapEv",
            "__ZN6Entity16getCustomNameTagEv",
            "__ZN13RenderManager12shouldRenderE6Entity7ICameraddd",
            "__ZN17NetworkPlayerInfo18loadPlayerTexturesEv",
            "__ZN10BigDecimal10f_INFLATEDEv",
            "__ZN6Unsafe20getAndBitwiseAndCharE6Objectlc",
            "__ZN11ChronoField14f_DAY_OF_MONTHEv",
            "__ZN15ConstantDynamic13getDescriptorEv",
            "__ZN14EntityPlayerMP6f_pingEv",
            "__ZN15IndexColorModel15f_allgrayopaqueEv",
            "__ZN9Minecraft14getSessionInfoEv",
            "__ZN6Module20implAddExportsNoSyncE6StringS_",
            "__ZN9TextStyle18f_SHORT_STANDALONEEv",
            "__ZN10Scoreboard12getTeamNamesEv",
            "__ZN11MouseHelper17ungrabMouseCursorEv",
            "__ZN24EnumFacing_AxisDirection9getOffsetEv",
            "__ZN10BaseLocale8f_scriptEv",
            "__ZN9Component10f_prefSizeEv",
            "__ZN9Component13getForegroundEv",
            "__ZN5Proxy6equalsE6Object",
            "__ZN21PropertyChangeSupport18firePropertyChangeE6Stringii",
            "__ZN16SimpleDateFormat16translatePatternE6StringS0_S0_",
            "__ZN20RendererLivingEntity17setScoreTeamColorE16EntityLivingBase",
            "__ZN7Pattern7CIRangeEii",
            "__ZN25Class_EnclosingMethodInfo8isMethodEv",
            "__ZN9TypeToken10f_hashCodeEv",
            "__ZN15FontLineMetrics6equalsE6Object",
            "__ZN16LambdaFormEditor22makeRepeatedFilterFormE10MethodType5arr_I",
            "__ZN9LocalTime2ofEiii",
            "__ZN6Potion16f_field_180150_IEv",
            "__ZN21ChunkProviderSettings17f_gravelMinHeightEv",
            "__ZN12GameSettings13f_keyBindDropEv",
            "__ZN12StringBuffer6insertEi12CharSequence",
            "__ZN10CharBuffer3putEi5arr_Cii",
            "__ZN8Duration11plusMinutesEl",
            "__ZN12RenderGlobal26f_entityOutlineFramebufferEv",
            "__ZN5oatpp3web8protocol4http8incoming20RequestHeadersReader11readHeadersEPNS_4data6stream24InputStreamBufferedProxyERNS1_17ProtocolErrorInfoINS2_6StatusEEE",
            "__ZN30YggdrasilAuthenticationService6f_gsonEv",
            "__ZN7Pattern6cursorEv",
            "__ZN18ItemInWorldManager22activateBlockOrUseItemE12EntityPlayer5World9ItemStack8BlockPos10EnumFacingfff",
            "__ZN8Currency19replaceCurrencyDataE25Currency_CurrencyProperty",
            "__ZN17StackTraceElement22f_BUILTIN_CLASS_LOADEREv",
            "__ZN10Properties6store0E14BufferedWriter6Stringb",
            "__ZN8Duration7ofNanosEl",
            "__ZN10EAttribute11f_ETRACKINGEv",
            "__ZN6Potion32applyAttributesModifiersToEntityE16EntityLivingBase16BaseAttributeMapi",
            "__ZN12SoundManager11f_sndSystemEv",
            "__ZN5Vec3i13f_NULL_VECTOREv",
            "__ZN9ArrayList11writeObjectE18ObjectOutputStream",
            "__ZN7HashMap7getNodeE6Object",
            "__ZN10EventQueue17dispatchEventImplE8AWTEvent6Object",
            "__ZN11GsonBuilder25f_longSerializationPolicyEv",
            "__ZN6Unsafe12putLongPartsE6Objectlii",
            "__ZN27ImmutableCollection_Builder26f_DEFAULT_INITIAL_CAPACITYEv",
            "__ZN7Integer13toStringUTF16Eii",
            "__ZN8FillPath9traceWrapEv",
            "__ZN13StreamEncoder4f_chEv",
            "__ZN17NetworkPlayerInfo13func_178847_nEv",
            "__ZN11InetAddress17isAnyLocalAddressEv",
            "__ZN11EntityHorse20getGrassEatingAmountEf",
            "__ZN4File5toURIEv",
            "__ZThn8_N5oatpp3web6server21HttpConnectionHandler4stopEv",
            "__ZN5Label14markSubroutineEs",
            "__ZN12GameSettings6f_gsonEv",
            "__ZN7KeyPair18f_serialVersionUIDEv",
            "__ZN10ColorModel8hashCodeEv",
            "__ZN20MovingObjectPosition11getBlockPosEv",
            "__ZN11Constructor11newInstanceE16Object_interface",
            "__ZN18ScopedMemoryAccess18loadFromByteBufferE5ClassS0_i10ByteBufferi27VectorSupport_VectorSpecies27VectorSupport_LoadOperation",
            "__ZN6Unsafe18getBooleanVolatileE6Objectl",
            "__ZN15AttributeValues7f_widthEv",
            "__ZN10BigInteger14remainderKnuthES_",
            "__ZN13BreakIterator19createBreakInstanceE21LocaleProviderAdapter6Localei",
            "__ZN14StatisticsFile13func_150877_dEv",
            "__ZN10DateFormat11getCalendarEv",
            "__ZN4Font15getStringBoundsE17CharacterIteratorii17FontRenderContext",
            "__ZN14FileDescriptor5closeEv",
            "__ZN16LambdaFormEditor19spreadArgumentsFormEi5Classi",
            "__ZN25S48PacketResourcePackSend6f_hashEv",
            "__ZN10DateFormat19f_DAY_OF_YEAR_FIELDEv",
            "__ZN10MethodType19changeParameterTypeEi5Class",
            "__ZN7Wrapper27newIllegalArgumentExceptionE6String6Object",
            "__ZN10MouseEvent6f_xAbsEv",
            "__ZN18ScopedMemoryAccess5forceE24ScopedMemoryAccess_Scope14FileDescriptorlbll",
            "__ZN13ModelRenderer8f_mirrorEv",
            "__ZN20MethodHandles_Lookup9f_TRUSTEDEv",
            "__ZN18ObjectOutputStream14verifySubclassEv",
            "__ZN15MinecraftServer21refreshStatusNextTickEv",
            "__ZN10Properties6valuesEv",
            "__ZN9VarHandle15coordinateTypesEv",
            "__ZN9Crossings6getYLoEv",
            "__ZN12CreativeTabs23displayAllReleventItemsE4List",
            "__ZN16EntityLivingBase16f__combatTrackerEv",
            "__ZN6Unsafe27weakCompareAndSetShortPlainE6Objectlss",
            "__ZN5oatpp5utils10conversion9strToBoolERKNS_4data7mapping4type6StringERb",
            "__ZN20EnumPlayerModelParts14f_RIGHT_SLEEVEEv",
            "__ZN18ScopedMemoryAccess27getAndBitwiseAndLongReleaseE24ScopedMemoryAccess_Scope6Objectll",
            "__ZN16ModuleDescriptor11f_requires_Ev",
            "__ZN17DropTargetContext10rejectDragEv",
            "__ZN13SunGraphics2D29f_lcdTextContrastDefaultValueEv",
            "__ZN16EntityLivingBase21onChangedPotionEffectE12PotionEffectb",
            "__ZN3URI8getQueryEv",
            "__ZN8StatBase15f_isIndependentEv",
            "__ZN7EnumMap11containsKeyE6Object",
            "__ZN6Path2D23f_SERIAL_SEG_FLT_MOVETOEv",
            "__ZN8Calendar5isSetEi",
            "__ZN14RenderingHints15f_KEY_DITHERINGEv",
            "__ZN15AttributeValues6equalsE6ObjectS0_",
            "__ZN29JobAttributes_DestinationType11f_I_PRINTEREv",
            "__ZN15SecurityManager9checkLinkE6String",
            "__ZN12PathNavigate12f_pathFinderEv",
            "__ZN8Calendar11f_HOUR_MASKEv",
            "__ZN13ServiceLoader13f_serviceNameEv",
            "__ZN11ClassLoader8packagesEv",
            "__ZN24PageAttributes_MediaType19f_I_INVITE_ENVELOPEEv",
            "__ZN6Unsafe16freeMemoryChecksEl",
            "__ZN5Frame10f_ARRAY_OFEv",
            "__ZN11SymbolTable18addBootstrapMethodE6Handle16Object_interface",
            "__ZN5oatpp6parser5Caret14StateSaveGuard17getSavedErrorCodeEv",
            "__ZN17IdentityArrayList11removeRangeEii",
            "__ZN19DragSourceDragEvent13getUserActionEv",
            "__ZN5oatpp4data6stream12ReadCallback4readERNS0_6buffer14InlineReadDataERNS_5async6ActionE",
            "__ZN20PlatformLogger_Level6f_INFOEv",
            "__ZN8Graphics14getFontMetricsE4Font",
            "__ZN19NumericShaper_Range10f_EUROPEANEv",
            "__ZN17AccessibleContext36f_ACCESSIBLE_TEXT_ATTRIBUTES_CHANGEDEv",
            "__ZN14HierarchyEvent9f_changedEv",
            "__ZN6Unsafe11copyMemory0E6ObjectlS0_ll",
            "__ZN8MimeType11isTokenCharEc",
            "__ZN14EntityRenderer13f_shaderIndexEv",
            "__ZN6String19newStringUTF8NoReplE5arr_Bii",
            "__ZN14RenderingHints31f_VALUE_TEXT_ANTIALIAS_LCD_VRGBEv",
            "__ZN12CalendarDate16f_daylightSavingEv",
            "__ZN18PlayerControllerMP13shouldDrawHUDEv",
            "__ZN11RenderChunk15preRenderBlocksE13WorldRenderer8BlockPos",
            "__ZN9Dimension7initIDsEv",
            "__ZN12PacketBuffer10readMediumEv",
            "__ZN10MemberName13isConstructorEv",
            "__ZN11PrintStream7printlnEc",
            "__ZN16EntityJumpHelper11f_isJumpingEv",
            "__ZN20LambdaForm_BasicType12f_L_TYPE_NUMEv",
            "__ZN24JobAttributes_DialogType10f_I_COMMONEv",
            "__ZN16ProtectionDomain21staticPermissionsOnlyEv",
            "__ZN6Dialog14modalityPushedEv",
            "__ZN8KeyEvent7f_VK_F2Ev",
            "__ZN8MimeType10getSubTypeEv",
            "__ZN9Character7isDigitEc",
            "__ZN3URI8f_schemeEv",
            "__ZNK5oatpp3web8protocol4http8incoming17SimpleBodyDecoder18getStreamProcessorERKNS_4data5share16StringKeyLabelCIES9_",
            "__ZN20MethodHandles_Lookup20checkSecurityManagerE5Class10MemberName",
            "__ZN24PageAttributes_MediaType8f_ISO_B4Ev",
            "__ZN10ColorSpace10f_TYPE_CMYEv",
            "__ZN10EAttribute7f_ESIZEEv",
            "__ZN13S34PacketMaps12setMapdataToE7MapData",
            "__ZN15MinecraftServer14setCommandStatE23CommandResultStats_Typei",
            "__ZN10JsonReader8toStringEv",
            "__ZN11CoderResult7isErrorEv",
            "__ZN11GsonBuilder22addTypeAdaptersForDateE6Stringii4List",
            "__ZN5Event11f_modifiersEv",
            "__ZN14CharsetDecoder17f_maxCharsPerByteEv",
            "__ZN6Unsafe20getAndSetByteReleaseE6Objectlh",
            "__ZN11SampleModel10f_numBandsEv",
            "__ZN11WorldClient13getEntityByIDEi",
            "__ZN12BaseCalendar14getMonthLengthEii",
            "__ZN9WorldInfo12f_sizeOnDiskEv",
            "__ZN11SurfaceType17f_DESC_4BYTE_ABGREv",
            "__ZN18ScopedMemoryAccess19getAndBitwiseAndIntE24ScopedMemoryAccess_Scope6Objectli",
            "__ZN17LongHashMap_Entry6f_hashEv",
            "__ZN14ResourceBundle9getLoaderE6Module",
            "__ZN15LambdaForm_Name10typesMatchE20LambdaForm_BasicType6Object",
            "__ZN5World12isAreaLoadedE8BlockPosS0_",
            "__ZN8Calendar11internalGetEi",
            "__ZN13BufferedImage15addTileObserverE12TileObserver",
            "__ZN17DragSourceContext14dragMouseMovedE19DragSourceDragEvent",
            "__ZN14BufferedWriter8f_nCharsEv",
            "__ZThn8_N5oatpp4data6stream24InputStreamBufferedProxy16commitReadOffsetEl",
            "__ZN12BiomeGenBase13f_desertHillsEv",
            "__ZN9Component9f_incRateEv",
            "__ZN9PathPoint8toStringEv",
            "__ZN10MethodType5eraseEv",
            "__ZN15AttributeValues16extractYRotationE15AffineTransformb",
            "__ZN11ThreadGroup11isDestroyedEv",
            "__ZN8Optional3mapE8Function",
            "__ZN10CharBuffer9putBufferEiS_ii",
            "__ZN17AccessibleContext27f_ACCESSIBLE_STATE_PROPERTYEv",
            "__ZN14DatagramPacket9f_addressEv",
            "__ZN9GuiScreen14confirmClickedEbi",
            "__ZN14OffsetDateTime4plusE14TemporalAmount",
            "__ZN28ChannelInboundHandlerAdapter11channelReadE21ChannelHandlerContext6Object",
            "__ZN13PriorityQueue21siftUpUsingComparatorEi6Object16Object_interface10Comparator",
            "__ZN18TextureAtlasSprite20hasAnimationMetadataEv",
            "__ZN20C14PacketTabComplete14readPacketDataE12PacketBuffer",
            "__ZN18ScopedMemoryAccess15putIntUnalignedE24ScopedMemoryAccess_Scope6Objectlib",
            "__ZN12EntityPlayer13f_spawnForcedEv",
            "__ZN7Polygon8containsE5Point",
            "__ZN13WorldRenderer14putBrightness4Eiiii",
            "__ZN21AbstractStringBuilder6insertEic",
            "__ZN20S29PacketSoundEffect4getZEv",
            "__ZN10CharBuffer8toStringEv",
            "__ZN7Wrapper9makeArrayEi",
            "__ZN6Region6getLoYEv",
            "__ZN11FieldWriter19visitTypeAnnotationEi8TypePath6Stringb",
            "__ZN19ChunkProviderServer11chunkExistsEii",
            "__ZN10LinkedList18f_serialVersionUIDEv",
            "__ZN9DayOfWeek10f_THURSDAYEv",
            "__ZN4Item5isMapEv",
            "__ZN12ModuleWriter21computeAttributesSizeEv",
            "__ZN10ColorSpace10f_TYPE_LuvEv",
            "__ZN12DoubleBuffer16asReadOnlyBufferEv",
            "__ZN16TreeMap_EntrySet4sizeEv",
            "__ZN5Field7setLongE6Objectl",
            "__ZN17HttpURLConnection16f_HTTP_USE_PROXYEv",
            "__ZN11GsonBuilder19f_fieldNamingPolicyEv",
            "__ZN31S47PacketPlayerListHeaderFooter13processPacketE21INetHandlerPlayClient",
            "__ZN8Vector4f9normaliseES_",
            "__ZN6Socket14shutdownOutputEv",
            "__ZN12MenuShortcut8toStringEv",
            "__ZN10LinkedList4nodeEi",
            "__ZN19ChunkProviderServer14f_loadedChunksEv",
            "__ZN9Minecraft8f_streamEv",
            "__ZN5Field8getFloatE6Object",
            "__ZN13ShaderManager12f_attributesEv",
            "__ZN21C0BPacketEntityAction14readPacketDataE12PacketBuffer",
            "__ZN26DecimalFormat_FastPathData25f_positiveAffixesRequiredEv",
            "__ZN8Matrix4f6invertEv",
            "__ZN6Period8toStringEv",
            "__ZN14RenderingHints22f_VALUE_DITHER_DEFAULTEv",
            "__ZN14TreeMap_KeySet7isEmptyEv",
            "__ZN11Constructor17getDeclaringClassEv",
            "__ZN9TimerTask8f_periodEv",
            "__ZN6Source4playE7Channel",
            "__ZN13SunGraphics2D13checkFontInfoE8FontInfo4Font17FontRenderContext",
            "__ZN15EntityItemFrame17readEntityFromNBTE14NBTTagCompound",
            "__ZN13ModuleVisitor14visitMainClassE6String",
            "__ZN14NBTTagCompound6equalsE6Object",
            "__ZN20Class_ReflectionData12f_simpleNameEv",
            "__ZN11FloatBuffer3getEi",
            "__ZN4Blit13makePrimitiveE11SurfaceType13CompositeTypeS0_",
            "__ZN13MessageHeader3setEi6StringS0_",
            "__ZN6Window7toFrontEv",
            "__ZN11Framebuffer19f_framebufferFilterEv",
            "__ZN19S45PacketTitle_Type7f_RESETEv",
            "__ZN11SurfaceType15f_UshortIndexedEv",
            "__ZN5oatpp5utils10conversion19int64ToCharSequenceExPhl",
            "__ZN12RenderGlobal19markBlocksForUpdateEiiiiii",
            "__ZN18ScopedMemoryAccess21getAndAddByteInternalE24ScopedMemoryAccess_Scope6Objectlh",
            "__ZN8Ordering10sortedCopyE8Iterable",
            "__ZN19S2DPacketOpenWindow15writePacketDataE12PacketBuffer",
            "__ZN9Reference5clearEv",
            "__ZN19ChunkProviderClient18unloadQueuedChunksEv",
            "__ZN7Pattern13splitAsStreamE12CharSequence",
            "__ZN5World7isWaterE8BlockPos",
            "__ZN5Debug4HelpEv",
            "__ZN16Joiner_MapJoiner8appendToE13StringBuilder3Map",
            "__ZN10CharBuffer8f_offsetEv",
            "__ZN5World20f_thunderingStrengthEv",
            "__ZN5oatpp7network3tcp10Connection5closeEv",
            "__ZN12PacketBuffer13readEnumValueE5Class",
            "__ZN17BoundMethodHandle14speciesDataForE10LambdaForm",
            "__ZN13URLConnection14getHeaderFieldE6String",
            "__ZN6Window4showEv",
            "__ZN10Graphics2D12getCompositeEv",
            "__ZN17GraphicsPrimitive10simplenameE15Field_interface6Object",
            "__ZN11SurfaceData7f_validEv",
            "__ZN11WorldServer13updateWeatherEv",
            "__ZN17AccessibleContext34f_ACCESSIBLE_TABLE_CAPTION_CHANGEDEv",
            "__ZN6Render16getEntityTextureE6Entity",
            "__ZN28ConcurrentHashMap_KeySetView7forEachE8Consumer",
            "__ZN24S04PacketEntityEquipment10f_entityIDEv",
            "__ZN40SunDropTargetContextPeer_EventDispatcher15unregisterEventE18SunDropTargetEvent",
            "__ZNK5oatpp4data7mapping4type3AnyeqERKS3_",
            "__ZN9Minecraft17getSessionServiceEv",
            "__ZN11ActionEvent6f_whenEv",
            "__ZN12GameSettings12f_saturationEv",
            "__ZN13SunGraphics2D17f_backgroundColorEv",
            "__ZN17EnumParticleTypes14f_WATER_SPLASHEv",
            "__ZN10ByteBuffer8putShortEs",
            "__ZN12MethodHandle14internalValuesEv",
            "__ZN17FieldNamingPolicy12modifyStringEc6Stringi",
            "__ZN5oatpp3web6server13HttpProcessor10ComponentsC1ERKNSt3__110shared_ptrINS1_10HttpRouterEEERKNS5_INS2_6ConfigEEE",
            "__ZN3URL26setURLStreamHandlerFactoryE23URLStreamHandlerFactory",
            "__ZN38ObjectInputStream_BlockDataInputStream4peekEv",
            "__ZN6Entity15isOutsideBorderEv",
            "__ZN7Point2D6equalsE6Object",
            "__ZN24PageAttributes_MediaType8f_LETTEREv",
            "__ZN16EntityLivingBase16isPlayerSleepingEv",
            "__ZN10AtomicLong18f_serialVersionUIDEv",
            "__ZN7Charset10newEncoderEv",
            "__ZN11FontMetrics9getAscentEv",
            "__ZN12ValidatePipe12drawPolylineE13SunGraphics2D5arr_IS1_i",
            "__ZN15LambdaForm_Name6equalsE6Object",
            "__ZN10BigDecimal22stripZerosToMatchScaleE10BigIntegerlii",
            "__ZN9WorldType12setVersionedEv",
            "__ZN6Font2D14useAAForPtSizeEi",
            "__ZN17EnumParticleTypes7f_CLOUDEv",
            "__ZN13TextAttribute18f_WEIGHT_ULTRABOLDEv",
            "__ZN8Vector3f6negateES_",
            "__ZN21ImmutableList_Builder6addAllE8Iterator",
            "__ZN22S10PacketSpawnPainting9getFacingEv",
            "__ZN6Window24f_locationByPlatformPropEv",
            "__ZThn8_N5oatpp4data6stream25OutputStreamBufferedProxy5writeEPKvlRNS_5async6ActionE",
            "__ZN13LocalDateTime11truncatedToE12TemporalUnit",
            "__ZN10Graphics2D9setStrokeE6Stroke",
            "__ZN7Reifier17visitIntSignatureE12IntSignature",
            "__ZN10OffsetTime21withOffsetSameInstantE10ZoneOffset",
            "__ZN10LambdaForm13f_DEBUG_NAMESEv",
            "__ZN13EntityHanging17updateBoundingBoxEv",
            "__ZN40ObjectOutputStream_BlockDataOutputStream13writeBooleansE5arr_Zii",
            "__ZN7Pattern12f_UNIX_LINESEv",
            "__ZN14DatagramSocket13f_NO_DELEGATEEv",
            "__ZN3URL10f_userInfoEv",
            "__ZN20InputMethodHighlight37f_UNSELECTED_CONVERTED_TEXT_HIGHLIGHTEv",
            "__ZN9SoundList16setSoundCategoryE13SoundCategory",
            "__ZN11SurfaceType18f_DESC_INT_ARGB_BMEv",
            "__ZN16URLStreamHandler14openConnectionE3URL5Proxy",
            "__ZN4File8f_statusEv",
            "__ZN8Calendar13f_LONG_FORMATEv",
            "__ZN19EnumEnchantmentType12f_ARMOR_FEETEv",
            "__ZN10DropTarget16updateAutoscrollE5Point",
            "__ZN12ModelManager15getMissingModelEv",
            "__ZN5Color8f_yellowEv",
            "__ZN17StackTraceElement28f_JDK_NON_UPGRADEABLE_MODULEEv",
            "__ZN14ContentHandler10getContentE13URLConnection15Class_interface",
            "__ZN10LambdaForm10identity_LE6Object",
            "__ZN21AccessibleRelationSet8containsE6String",
            "__ZN14GraphicsDevice24isDisplayChangeSupportedEv",
            "__ZN15S14PacketEntity14readPacketDataE12PacketBuffer",
            "__ZN6Dialog24hideAndDisposePreHandlerEv",
            "__ZN8EntityFX12f_interpPosXEv",
            "__ZN9PathPoint6f_hashEv",
            "__ZN5oatpp6parser5Caret12createSharedEPKcl",
            "__ZN8Provider4keysEv",
            "__ZN9VarHandle11setVolatileE16Object_interface",
            "__ZN16SurfaceDataProxy14paletteChangedEv",
            "__ZN18PlayerUsageSnooper10f_uniqueIDEv",
            "__ZN17GraphicsPrimitive13f_TRACECOUNTSEv",
            "__ZN12NumberFormat24getCompactNumberInstanceEv",
            "__ZN19NumericShaper_Range14maskToRangeSetEi",
            "__ZN8Calendar11f_DATE_MASKEv",
            "__ZN5oatpp5utils10conversion12strToFloat32ERKNS_4data7mapping4type6StringERb",
            "__ZN15IndexColorModel15getTransparencyEv",
            "__ZN8Provider11implReplaceE6ObjectS0_",
            "__ZN9BlockBush10updateTickE5World8BlockPos11IBlockState6Random",
            "__ZN9LocalDate6formatE17DateTimeFormatter",
            "__ZN5World13getTileEntityE8BlockPos",
            "__ZN16IntegratedServer23addServerStatsToSnooperE18PlayerUsageSnooper",
            "__ZN11PrintWriter7printlnEc",
            "__ZN7Library4stopE6String",
            "__ZN9Component7mouseUpE5Eventii",
            "__ZN11SymbolTable26addConstantMemberReferenceEii6StringS0_S0_",
            "__ZN21ConcurrentLinkedQueue8toStringEv",
            "__ZN15AttributeValues6equalsE6Object",
            "__ZN11ClassWriter9newMethodE6StringS0_S0_b",
            "__ZN17ConcurrentHashMap7replaceE6ObjectS0_S0_",
            "__ZN12PacketBuffer9duplicateEv",
            "__ZN11ThreadLocal6getMapE6Thread",
            "__ZN18EnumChatFormatting6f_GOLDEv",
            "__ZN6Unsafe15getAndSetDoubleE6Objectld",
            "__ZN11RenderChunk18getLockCompileTaskEv",
            "__ZN11ClassLoader10isAncestorES_",
            "__ZN10MouseEvent10f_NOBUTTONEv",
            "__ZN10FrameTimer16f_field_181754_cEv",
            "__ZN10PathFinder16createEntityPathE9PathPointS0_",
            "__ZN12SimpleThread5dyingEv",
            "__ZN5Block14f_lightOpacityEv",
            "__ZN16Provider_Service6f_typeEv",
            "__ZN27ImmutableCollection_Builder16expandedCapacityEii",
            "__ZN23AtomicMarkableReference6f_pairEv",
            "__ZN20NetHandlerPlayClient12onDisconnectE14IChatComponent",
            "__ZN11ChronoField13f_NANO_OF_DAYEv",
            "__ZN13BufferedImage21f_TYPE_USHORT_555_RGBEv",
            "__ZN12SoundHandler9playSoundE6ISound",
            "__ZN10MemberName25makeVarHandleMethodInvokeE6String10MethodTypei",
            "__ZN5oatpp4data6buffer14InlineReadDataC1Ev",
            "__ZN7Integer13toOctalStringEi",
            "__ZN21C0BPacketEntityAction9f_auxDataEv",
            "__ZN6Region6dimAddEii",
            "__ZN10JsonReader12f_peekedLongEv",
            "__ZN14CharsetEncoder12f_ST_FLUSHEDEv",
            "__ZN11SoundSystem11copySourcesE7HashMap",
            "__ZN10BigInteger12padWithZerosE13StringBuilderi",
            "__ZN8TimeUnit12f_HOUR_SCALEEv",
            "__ZN11SoundSystem6snoozeEl",
            "__ZN13URLConnection28getContentHandlerPkgPrefixesEv",
            "__ZN20PlatformLogger_Level9f_WARNINGEv",
            "__ZN11ModuleLayer14f_nameToModuleEv",
            "__ZN17HttpURLConnection10disconnectEv",
            "__ZN6Thread34setDefaultUncaughtExceptionHandlerE31Thread_UncaughtExceptionHandler",
            "__ZN10FileSystem8hashCodeE4File",
            "__ZN9Minecraft17f_objectMouseOverEv",
            "__ZN12CalendarDate6setEraE3Era",
            "__ZN10FontFamily9getFamilyE6String",
            "__ZN17DropTargetContext12f_dropTargetEv",
            "__ZN20S0CPacketSpawnPlayer4getYEv",
            "__ZN13ParsePosition12f_errorIndexEv",
            "__ZN12ServerSocket7getImplEv",
            "__ZN9GuiIngame10renderDemoE16ScaledResolution",
            "__ZN14AnnotationType11isInheritedEv",
            "__ZN18RegistryNamespaced23f_inverseObjectRegistryEv",
            "__ZN9VarHandle20checkExactAccessModeE26VarHandle_AccessDescriptor",
            "__ZN6Unsafe20weakCompareAndSetIntE6Objectlii",
            "__ZN17ReflectionFactory13packageEqualsE5ClassS0_",
            "__ZN15IdentityHashMap8hashCodeEv",
            "__ZN5oatpp5utils10conversion11strToUInt64EPKc",
            "__ZN10Scoreboard21getValueFromObjectiveE6String14ScoreObjective",
            "__ZN14RenderingHints15f_KEY_RENDERINGEv",
            "__ZN8Ordering4fromE10Comparator",
            "__ZN10TimerQueue8toStringEv",
            "__ZN13BufferedImage16f_DCM_ALPHA_MASKEv",
            "__ZN6Entity14f_lastTickPosXEv",
            "__ZN5Chunk9addEntityE6Entity",
            "__ZN13SunGraphics2D10f_COMP_XOREv",
            "__ZN7Context33f_currentTypeAnnotationTargetPathEv",
            "__ZN8Vector3D8subtractES_S_",
            "__ZN15AttributeValues19f_baselineTransformEv",
            "__ZN8FontInfo12f_fontStrikeEv",
            "__ZN9ArrayList11removeRangeEii",
            "__ZN21ChunkProviderSettings18f_dioriteMinHeightEv",
            "__ZN13CommandThread12f_className_Ev",
            "__ZN9ZoneRules9getOffsetE13LocalDateTime",
            "__ZN15GuiOverlayDebug9bytesToMbEl",
            "__ZN14EntityRenderer14renderRainSnowEf",
            "__ZN18S2APacketParticles10getXOffsetEv",
            "__ZN11SurfaceType21f_DESC_GRADIENT_PAINTEv",
            "__ZN5oatpp4data6stream18BufferOutputStreamD0Ev",
            "__ZN6Raster18createBandedRasterEiiii5Point",
            "__ZN15FontLineMetrics9getHeightEv",
            "__ZN11ClassReader18f_EXPAND_ASM_INSNSEv",
            "__ZN24ModuleDescriptor_Version6equalsE6Object",
            "__ZN23ResourceBundle_CacheKey11f_moduleRefEv",
            "__ZN13AtomicInteger7f_VALUEEv",
            "__ZN4Menu10readObjectE17ObjectInputStream",
            "__ZN7TreeMap23getEntryUsingComparatorE6Object",
            "__ZN8KeyEvent12setModifiersEi",
            "__ZN15DatagramChannel4readE20ByteBuffer_interface",
            "__ZN10BigDecimal3addEli10BigIntegeri",
            "__ZN9Character12isWhitespaceEc",
            "__ZN9Component18firePropertyChangeE6Stringhh",
            "__ZN20MethodHandles_Lookup38getDirectMethodNoRestrictInvokeSpecialE5Class10MemberNameS_",
            "__ZN5oatpp4data6buffer22SynchronizedFIFOBufferC2EPvlllb",
            "__ZN13SunGraphics2D5scaleEdd",
            "__ZN26ServerConfigurationManager13sendToAllNearEddddi6Packet",
            "__ZN24ModuleDescriptor_Version10f_sequenceEv",
            "__ZN5Label31f_FORWARD_REFERENCE_HANDLE_MASKEv",
            "__ZN18ScopedMemoryAccess39compareAndExchangeDoubleAcquireInternalE24ScopedMemoryAccess_Scope6Objectldd",
            "__ZN17GraphicsPrimitive15satisfiesSameAsES_",
            "__ZN8KeyEvent13f_VK_MULTIPLYEv",
            "__ZN13WorldProvider17doesWaterVaporizeEv",
            "__ZN20LambdaForm_BasicType9basicTypeEc",
            "__ZN11FloatBuffer16asReadOnlyBufferEv",
            "__ZN9WorldInfo20f_mapFeaturesEnabledEv",
            "__ZN16URLStreamHandler14openConnectionE3URL",
            "__ZN11Enchantment12f_protectionEv",
            "__ZN16EntityLivingBase8isPlayerEv",
            "__ZN11SymbolTable9getSourceEv",
            "__ZN12MethodHandle12internalFormEv",
            "__ZN6Cursor16f_DEFAULT_CURSOREv",
            "__ZN6Locale10formatListE16String_interface6String",
            "__ZN8Currency8f_A_TO_ZEv",
            "__ZN13WorldRenderer10f_drawModeEv",
            "__ZN18ScopedMemoryAccess20getAndAddCharReleaseE24ScopedMemoryAccess_Scope6Objectlc",
            "__ZN21ConcurrentLinkedQueue5clearEv",
            "__ZN12SimpleThread3runEv",
            "__ZN12NumberFormat24setMaximumFractionDigitsEi",
            "__ZN13WorldRenderer14putColorRGB_F4Efff",
            "__ZN16PhantomCleanable7enqueueEv",
            "__ZN5oatpp8encoding7Unicode32getUtf8CharSequenceLengthForCodeEj",
            "__ZN9ItemStack17useItemRightClickE5World12EntityPlayer",
            "__ZN13ServiceLoader9f_serviceEv",
            "__ZN6Render10renderNameE6Entityddd",
            "__ZN12BiomeGenBase7f_colorEv",
            "__ZN13SunGraphics2D9drawImageE5Imageiiii13ImageObserver",
            "__ZN17AttributeModifier8setSavedEb",
            "__ZN18ScopedMemoryAccess10closeScopeE24ScopedMemoryAccess_Scope",
            "__ZN6Font2D8getWidthEv",
            "__ZN7Pattern15RemoveQEQuotingEv",
            "__ZN11WeakHashMap17containsNullValueEv",
            "__ZN11ThreadGroup8f_daemonEv",
            "__ZN11ClassWriter15visitOuterClassE6StringS0_S0_",
            "__ZN15IndexColorModel9getAlphasE5arr_B",
            "__ZN4Edge10f_nextEdgeEv",
            "__ZN13MenuComponent7getFontEv",
            "__ZN13EntityAgeable12f_growingAgeEv",
            "__ZN5Label3putE10ByteVectorib",
            "__ZN5oatpp4data7mapping4type7__class6String7getTypeEv",
            "__ZN13ZonedDateTime3nowE6ZoneId",
            "__ZN8Duration6isZeroEv",
            "__ZN15AccessibleState7f_MODALEv",
            "__ZN8Vector2f8toStringEv",
            "__ZN17HttpURLConnection21f_HTTP_CLIENT_TIMEOUTEv",
            "__ZN9Minecraft9isUnicodeEv",
            "__ZN10BigInteger8multiplyEl",
            "__ZN23S25PacketBlockBreakAnim12getBreakerIdEv",
            "__ZN13SunGraphics2D9drawBytesE5arr_Biiii",
            "__ZN20ComponentOrientation18f_serialVersionUIDEv",
            "__ZN29PixelToParallelogramConverter13drawRectangleE13SunGraphics2Dddddd",
            "__ZN11SoundSystem15CommandSetPitchE6Stringf",
            "__ZN12PacketBuffer12writeVarLongEl",
            "__ZN17NetworkPlayerInfo16f_field_178870_jEv",
            "__ZN5Class14reflectionDataEv",
            "__ZN5Label18f_FLAG_JUMP_TARGETEv",
            "__ZN5Class15f_classValueMapEv",
            "__ZN3URI4joinE5arr_C5arr_I",
            "__ZN14EffectRenderer13updateEffectsEv",
            "__ZN9Container19transferStackInSlotE12EntityPlayeri",
            "__Z11startServerv",
            "__ZN19PropertyChangeEvent14f_propertyNameEv",
            "__ZN5Class22getAnnotatedSuperclassEv",
            "__ZN6Vector4loadE11FloatBuffer",
            "__ZN14CharsetDecoder12f_ST_FLUSHEDEv",
            "__ZN12BiomeGenBase13getEnableSnowEv",
            "__ZN7TreeSet9f_PRESENTEv",
            "__ZN9ZoneRules6equalsE6Object",
            "__ZN21LocaleProviderAdapter23getCurrencyNameProviderEv",
            "__ZN11ShortBuffer4wrapE5arr_S",
            "__ZN27BlockFlower_EnumFlowerColor7valueOfE6String",
            "__ZN22StateTrackableDelegate14setUntrackableEv",
            "__ZN24C13PacketPlayerAbilities14f_invulnerableEv",
            "__ZN8Calendar13f_FIELD_COUNTEv",
            "__ZN9Component28subtractAndApplyShapeBelowMeEv",
            "__ZN4Vec310distanceToES_",
            "__ZN18ScopedMemoryAccess31compareAndExchangeDoubleAcquireE24ScopedMemoryAccess_Scope6Objectldd",
            "__ZN5Chunk27checkSkylightNeighborHeightEiii",
            "__ZN16DragGestureEvent8f_originEv",
            "__ZN6Unsafe31weakCompareAndSetReferencePlainE6ObjectlS0_S0_",
            "__ZN8Calendar27f_DAY_OF_WEEK_IN_MONTH_MASKEv",
            "__ZN17HttpURLConnection18getResponseMessageEv",
            "__ZN5World27calculateSkylightSubtractedEf",
            "__ZN19CrashReportCategory24addCrashSectionThrowableE6String9Throwable",
            "__ZN11MetaMessage11writeVarIntE5arr_Bil",
            "__ZN7Village22readVillageDataFromNBTE14NBTTagCompound",
            "__ZN24SunDropTargetContextPeer15f_STATUS_ACCEPTEv",
            "__ZN10ColorModel12f_pixel_bitsEv",
            "__ZN10Teleporter28f_destinationCoordinateCacheEv",
            "__ZN24ModuleDescriptor_Builder5opensE3Set6StringS0_",
            "__ZN8AWTEvent10f_isPostedEv",
            "__ZN6Window17closeSplashScreenEv",
            "__ZN9Component31clearMostRecentFocusOwnerOnHideEv",
            "__ZN29LambdaFormEditor_TransformKey13f_STRESS_TESTEv",
            "__ZN10EntityItem13getEntityItemEv",
            "__ZN11FloatBuffer4wrapE5arr_F",
            "__ZN13ModuleVisitor8visitEndEv",
            "__ZN12DoubleBuffer19f_ARRAY_BASE_OFFSETEv",
            "__ZN17HttpURLConnection9f_HTTP_OKEv",
            "__ZN12DoubleBuffer8mismatchES_",
            "__ZN11CoderResult11f_UNDERFLOWEv",
            "__ZN8TimeZone10setDefaultES_",
            "__ZN20Locale_FilteringMode21f_MAP_EXTENDED_RANGESEv",
            "__ZN16ClassLoaderValue3keyEv",
            "__ZN16HashMap_TreeNode7f_rightEv",
            "__ZN9Component17invalidateIfValidEv",
            "__ZN9Character17f_MODIFIER_SYMBOLEv",
            "__ZN20InputMethodHighlight35f_SELECTED_CONVERTED_TEXT_HIGHLIGHTEv",
            "__ZN3URL25f_BUILTIN_HANDLERS_PREFIXEv",
            "__ZN16LambdaFormEditor22f_MAX_CACHE_ARRAY_SIZEEv",
            "__ZN6Unsafe19getAndSetIntAcquireE6Objectli",
            "__ZN11ShaderGroup17f_shaderGroupNameEv",
            "__ZN13Point2D_Float4getXEv",
            "__ZN12RenderGlobal17f_lastViewEntityXEv",
            "__ZN18PlayerProfileCache14getGameProfileE15MinecraftServer6String",
            "__ZN24ModuleDescriptor_Builder9requires_E3Set6String",
            "__ZN20VertexBufferUploader13func_181679_aE13WorldRenderer",
            "__ZN5oatpp6parser5Caret6skipRNEv",
            "__ZN14EntityRenderer13f_shaderCountEv",
            "__ZN18ScopedMemoryAccess26getAndBitwiseXorIntReleaseE24ScopedMemoryAccess_Scope6Objectli",
            "__ZN5World12loadItemDataE5Class6String",
            "__ZN7TreeMap15buildFromSortedEi8Iterator17ObjectInputStream6Object",
            "__ZN8TypePath7getStepEi",
            "__ZN8TimeZone15f_GMT_ID_LENGTHEv",
            "__ZN11EntityHorse15f_hasReproducedEv",
            "__ZN25ModuleDescriptor_Requires6f_modsEv",
            "__ZN20NetHandlerPlayClient21handleChangeGameStateE24S2BPacketChangeGameState",
            "__ZN5oatpp6parser4json7mapping12Deserializer21deserializeCollectionEPS3_RNS0_5CaretEPKNS_4data7mapping4type4TypeE",
            "__ZN16RectangularShape7getMinYEv",
            "__ZN6BitSet5clearEii",
            "__ZN10Properties18f_serialVersionUIDEv",
            "__ZN24PageAttributes_MediaType17f_ISO_C7_ENVELOPEEv",
            "__ZN9TaskQueue11quickRemoveEi",
            "__ZN6Thread19clearInterruptEventEv",
            "__ZN11WorldBorder18getClosestDistanceEdd",
            "__ZN25ChunkCompileTaskGenerator6finishEv",
            "__ZN12ConstantPool12getMethodAt0E6Objecti",
            "__ZN18ScopedMemoryAccess12getAndSetIntE24ScopedMemoryAccess_Scope6Objectli",
            "__ZN11ClassWriter21f_enclosingClassIndexEv",
            "__ZN11CombatEntry8f_healthEv",
            "__ZN13NetworkSystem11networkTickEv",
            "__ZN9Character5digitEci",
            "__ZN11EntityHorse18onInventoryChangedE14InventoryBasic",
            "__ZN11FloatBuffer3putE5arr_F",
            "__ZN10GuiNewChat12getChatWidthEv",
            "__ZN6Line2D12ptLineDistSqEdddddd",
            "__ZN18MemberName_Factory7resolveEh10MemberName5Classib",
            "__ZN12VillageSiege15f_field_75534_eEv",
            "__ZN4Font11getFontNameE6Locale",
            "__ZN6Joiner8toStringE6Object",
            "__ZN15AttributeValues16setStrikethroughEb",
            "__ZN14BiomeDecorator15genStandardOre2Ei14WorldGeneratorii",
            "__ZN8Calendar12f_ALL_STYLESEv",
            "__ZN17CommandBlockLogic14getDisplayNameEv",
            "__ZN9ModelBase18setModelAttributesES_",
            "__ZN14AlphaComposite10f_DST_OVEREv",
            "__ZN6Thread21getContextClassLoaderEv",
            "__ZN19ServerSocketChannel6socketEv",
            "__ZN13RenderManager12f_renderPosXEv",
            "__ZN20DateTimeParseContext9getParsedE13TemporalField",
            "__ZN9Container11enchantItemE12EntityPlayeri",
            "__ZN12StringBuffer6appendEd",
            "__ZN5Block13spawnAsEntityE5World8BlockPos9ItemStack",
            "__ZN10BigDecimal5auditEv",
            "__ZN6Font2D10canDisplayEc",
            "__ZN10ZoneOffset6equalsE6Object",
            "__ZN14PageAttributes8getColorEv",
            "__ZN21LightweightDispatcher21f_targetLastEnteredDTEv",
            "__ZN5oatpp6parser5Caret8setErrorEPKcx",
            "__ZN6BitSet10intersectsES_",
            "__ZN20TypeParameterMatcher5matchE6Object",
            "__ZN8TimeZone14setDefaultZoneEv",
            "__ZN12EntityLiving18updateLeashedStateEv",
            "__ZN12SelectionKey10attachmentEv",
            "__ZN11Enchantment20getMaxEnchantabilityEi",
            "__ZN8LoopPipe13fillRoundRectE13SunGraphics2Diiiiii",
            "__ZN7NBTBase4readE9DataInputi14NBTSizeTracker",
            "__ZN10NBTTagList8hashCodeEv",
            "__ZN6Unsafe19getAndBitwiseOrByteE6Objectlh",
            "__ZN17UserListWhitelist12getObjectKeyE11GameProfile",
            "__ZN10BigDecimal11adjustScaleEil",
            "__ZN11SampleModel15getSampleDoubleEiii10DataBuffer",
            "__ZN13AtomicBoolean8toStringEv",
            "__ZN17HttpURLConnection19f_HTTP_REQ_TOO_LONGEv",
            "__ZN25Class_EnclosingMethodInfo7getNameEv",
            "__ZN8MaskFill19canDoParallelogramsEv",
            "__ZN8Calendar5cloneEv",
            "__ZN9DigitList9getDoubleEv",
            "__ZN4Font10createFontEi11InputStream",
            "__ZN15IdentityHashMap3getE6Object",
            "__ZN15WorldGenBigTree13f_leafDensityEv",
            "__ZN13LocalDateTime5f_MAXEv",
            "__ZN7Wrapper13basicTypeCharEv",
            "__ZN5Frame8setLocalEii",
            "__ZN12RenderGlobal10playRecordE6String8BlockPos",
            "__ZN15EnumFacing_Axis12isHorizontalEv",
            "__ZN15AttributeValues15setRunDirectionEi",
            "__ZN18PlayerUsageSnooper16f_field_152773_aEv",
            "__ZN13ResolverStyle7valueOfE6String",
            "__ZN16ScaledResolution22getScaledHeight_doubleEv",
            "__ZN20FocusTraversalPolicy17getComponentAfterE9Container9Component",
            "__ZN20InputMethodHighlight16f_CONVERTED_TEXTEv",
            "__ZN7Integer17describeConstableEv",
            "__ZN6Unsafe26weakCompareAndSetBytePlainE6Objectlhh",
            "__ZN4File10canExecuteEv",
            "__ZN9Component19f_accessibleContextEv",
            "__ZN15AttributeValues13anyNonDefaultEi",
            "__ZN9IntBuffer3getEv",
            "__ZN20NetHandlerPlayClient15handleChunkDataE18S21PacketChunkData",
            "__ZN11ChronoField15f_MONTH_OF_YEAREv",
            "__ZN12ImmutableSet2ofE6ObjectS0_S0_S0_",
            "__ZN13ModelRenderer9f_offsetYEv",
            "__ZN9Component13dispatchEventE8AWTEvent",
            "__ZN11RenderLoops14f_fillRectLoopEv",
            "__ZN7Toolkit11createImageE5arr_Bii",
            "__ZN11TextHitInfo11f_charIndexEv",
            "__ZN9Component30getLocationOnScreen_NoTreeLockEv",
            "__ZN10Graphics2D13getBackgroundEv",
            "__ZN11WorldClient12removeEntityE6Entity",
            "__ZN5Block16getBlockHardnessE5World8BlockPos",
            "__ZN9Explosion10f_exploderEv",
            "__ZN24PageAttributes_ColorType14f_I_MONOCHROMEEv",
            "__ZN6Period2ofEiii",
            "__ZN11PrintWriter5printEb",
            "__ZN16DragGestureEvent9startDragE6Cursor12Transferable18DragSourceListener",
            "__ZN16SelectorProvider16inheritedChannelEv",
            "__ZN19S2DPacketOpenWindow8hasSlotsEv",
            "__ZN18FontStrikeDisposer7disposeEv",
            "__ZNK5oatpp4data6Bundle6getAllEv",
            "__ZN10InputEvent16f_CTRL_DOWN_MASKEv",
            "__ZN9LocalTime5f_MAXEv",
            "__ZN28S3BPacketScoreboardObjective13func_149339_cEv",
            "__ZN10MemberName23hasReceiverTypeDispatchEv",
            "__ZN24ModuleDescriptor_Builder4usesE6String",
            "__ZN10BigInteger4subNE5arr_IS0_i",
            "__ZN15CalendarBuilder11f_WEEK_YEAREv",
            "__ZN12PropertyEnum6createE6String5Class",
            "__ZN13PriorityQueue26f_DEFAULT_INITIAL_CAPACITYEv",
            "__ZN15MinecraftServer14func_181035_ahEv",
            "__ZN10MemberName12f_ALL_ACCESSEv",
            "__ZN11CombatEntry12getDamageSrcEv",
            "__ZN11SoundSystem18millisecondsPlayedE6String",
            "__ZN3URL19checkSpecifyHandlerE15SecurityManager",
            "__ZN17ObjectStreamClass26getSerializableConstructorE5Class",
            "__ZN14TileEntitySign8f_playerEv",
            "__ZN10InputEvent10isConsumedEv",
            "__ZN5World18canLightningStrikeE8BlockPos",
            "__ZN11ActionEvent18f_serialVersionUIDEv",
            "__ZN12BiomeGenBase25getRandomWorldGenForGrassE6Random",
            "__ZN4Menu15insertSeparatorEi",
            "__ZN12GameSettings18f_heldItemTooltipsEv",
            "__ZN15DoubleSignature11f_singletonEv",
            "__ZN5oatpp8encoding3Hex10readUInt32EPKcRj",
            "__ZN10MethodType22f_MAX_MH_INVOKER_ARITYEv",
            "__ZN5Proxy6f_typeEv",
            "__ZN7TreeMap14keySpliteratorEv",
            "__ZN10ByteBuffer3getE5arr_Bii",
            "__ZN13JobAttributes8f_copiesEv",
            "__ZN12CalendarDate8setMonthEi",
            "__ZN13ModelRenderer16setTextureOffsetEii",
            "__ZN13Authenticator16f_requestingPortEv",
            "__ZThn16_N5oatpp7network3tcp10ConnectionD0Ev",
            "__ZN13SunGraphics2D11f_shapepipeEv",
            "__ZN12MethodWriter16computeAllFramesEv",
            "__ZN12EntityAnimal14f_playerInLoveEv",
            "__ZN24ModuleDescriptor_Exports6sourceEv",
            "__ZN16InputMethodEvent18getVisiblePositionEv",
            "__ZN8Calendar9f_TUESDAYEv",
            "__ZN16AnnotationWriter16f_useNamedValuesEv",
            "__ZN16SimpleDateFormat29checkNegativeNumberExpressionEv",
            "__ZN11PrintWriter9toCharsetE6String",
            "__ZN26ServerConfigurationManager5addOpE11GameProfile",
            "__ZN7ByteBuf8toStringEii7Charset",
            "__ZN12BiomeGenBase20getFoliageColorAtPosE8BlockPos",
            "__ZN13URLConnection13getPermissionEv",
            "__ZN27BlockFlower_EnumFlowerColor8f_YELLOWEv",
            "__ZN31ReentrantReadWriteLock_ReadLock8toStringEv",
            "__ZN5Class24getDeclaredPublicMethodsE6String15Class_interface",
            "__ZN15MinecraftServer13f_userMessageEv",
            "__ZN13URLConnection25setDefaultRequestPropertyE6StringS0_",
            "__ZN13AtomicInteger8getPlainEv",
            "__ZN27BiomeGenBase_SpawnListEntry15f_minGroupCountEv",
            "__ZN8Provider12f_serviceMapEv",
            "__ZN9WorldInfo20setServerInitializedEb",
            "__ZN5World21getEntitiesWithinAABBE5Class13AxisAlignedBB9Predicate",
            "__ZN3URL11getProtocolEv",
            "__ZN9DigitList15isLongMIN_VALUEEv",
            "__ZN17EnumParticleTypes17getParticleFromIdEi",
            "__ZN13DecimalFormat9toPatternEb",
            "__ZN13ZonedDateTime5rangeE13TemporalField",
            "__ZN22ResourceBundle_Control20getNoFallbackControlE4List",
            "__ZN20S0EPacketSpawnObject9getSpeedXEv",
            "__ZN12EntityLiving13eatGrassBonusEv",
            "__ZN10DataFlavor20f_fragmentHtmlFlavorEv",
            "__ZN10AtomicLong15incrementAndGetEv",
            "__ZN31ServicesCatalog_ServiceProvider6equalsE6Object",
            "__ZN11SurfaceData18f_AAClipPaintShapeEv",
            "__ZN10MethodType17genericMethodTypeEi",
            "__ZN5Field8hashCodeEv",
            "__ZN14RenderingHints26f_VALUE_TEXT_ANTIALIAS_OFFEv",
            "__ZN12StreamThread7cleanupEv",
            "__ZN14S45PacketTitle13f_fadeOutTimeEv",
            "__ZN39PageAttributes_OrientationRequestedType12f_I_PORTRAITEv",
            "__ZN6Unsafe15copySwapMemory0E6ObjectlS0_lll",
            "__ZN21ConcurrentLinkedQueue13skipDeadNodesE26ConcurrentLinkedQueue_NodeS0_S0_S0_",
            "__ZN3URI11getUserInfoEv",
            "__ZN14ResourceBundle10clearCacheE11ClassLoader",
            "__ZN13JobAttributes10getMinPageEv",
            "__ZN14StatisticsFile13func_150878_cEv",
            "__ZN24PageAttributes_MediaType10f_I_ISO_A1Ev",
            "__ZN16EntityLivingBase14isPotionActiveEi",
            "__ZN18ClassValue_Version6isLiveEv",
            "__ZN24ModuleDescriptor_Exports6equalsE6Object",
            "__ZN13TextAttribute6f_FONTEv",
            "__ZN5oatpp3web8protocol4http8incoming7Request13getConnectionEv",
            "__ZN8Duration11truncatedToE12TemporalUnit",
            "__ZN11ThreadGroup6removeE6Thread",
            "__ZN17ConcurrentHashMap18reduceEntriesToIntEl13ToIntFunctioni17IntBinaryOperator",
            "__ZN11ClassWriter8newConstE6Object",
            "__ZN14PlatformLogger6configE6String9Throwable",
            "__ZN5Field17getDeclaringClassEv",
            "__ZN18ItemInWorldManager16f_field_180241_iEv",
            "__ZN24LambdaForm_NamedFunction24assertMemberIsConsistentEv",
            "__ZN10FontFamily13getFamilyNameEv",
            "__ZN12ValidatePipe8drawOvalE13SunGraphics2Diiii",
            "__ZN12ListenerData4f_upEv",
            "__ZN16LambdaFormEditor16bindArgumentTypeE17BoundMethodHandlei20LambdaForm_BasicType",
            "__ZN20NetHandlerPlayClient23handleDisplayScoreboardE26S3DPacketDisplayScoreboard",
            "__ZN5Frame11f_DIM_SHIFTEv",
            "__ZN17AnnotationVisitor8visitEndEv",
            "__ZN7ByteBuf10writeFloatEf",
            "__ZN15AttributeValues14f_runDirectionEv",
            "__ZN4Menu13f_nameCounterEv",
            "__ZN17MutableBigInteger14toCompactValueEi",
            "__ZN9IntBuffer5limitEi",
            "__ZN12PacketBuffer10readDoubleEv",
            "__ZN8KeyEvent14getKeyLocationEv",
            "__ZN5oatpp8encoding3Hex10readUInt16EPKcRt",
            "__ZN13EntityAgeable10entityInitEv",
            "__ZN7Library16setListenerAngleEf",
            "__ZN15ItemModelMesher14f_modelManagerEv",
            "__ZN6Region15getSpanIteratorEv",
            "__ZN6BitSet23f_ADDRESS_BITS_PER_WORDEv",
            "__ZN14RenderingHints30f_VALUE_TEXT_ANTIALIAS_DEFAULTEv",
            "__ZN9Character40f_DIRECTIONALITY_COMMON_NUMBER_SEPARATOREv",
            "__ZN8LoopPipe4drawE13SunGraphics2D5Shape",
            "__ZN6Raster18createBandedRasterEiiii5arr_IS0_5Point",
            "__ZN5World15getBlockDensityE4Vec313AxisAlignedBB",
            "__ZN9ArrayList16lastIndexOfRangeE6Objectii",
            "__ZN12MethodWriter18visitTryCatchBlockE5LabelS0_S0_6String",
            "__ZN11ActionEvent14f_ACTION_FIRSTEv",
            "__ZN5Event18f_WINDOW_DEICONIFYEv",
            "__ZN17AttributeModifier9getAmountEv",
            "__ZN12DoubleBuffer5sliceEv",
            "__ZN17DragSourceContext18f_serialVersionUIDEv",
            "__ZN8AWTEvent17f_RESERVED_ID_MAXEv",
            "__ZN9WorldType12f_CUSTOMIZEDEv",
            "__ZN13SocketChannel15getLocalAddressEv",
            "__ZN20AccessControlContext11f_isWrappedEv",
            "__ZN4Team23getMembershipCollectionEv",
            "__ZN20ZoneOffsetTransition12readExternalE9DataInput",
            "__ZN10AtomicLong12updateAndGetE17LongUnaryOperator",
            "__ZN13StringBuilder10readObjectE17ObjectInputStream",
            "__ZN20Block_EnumOffsetType4f_XZEv",
            "__ZN10ByteBuffer14asDoubleBufferEv",
            "__ZN40ObjectOutputStream_BlockDataOutputStream10writeLongsE5arr_Jii",
            "__ZN11EntityHorse18resetTexturePrefixEv",
            "__ZN13AtomicBoolean25weakCompareAndSetVolatileEbb",
            "__ZN11SurfaceType18f_DESC_INDEX8_GRAYEv",
            "__ZN14MethodTypeForm17f_LF_INVINTERFACEEv",
            "__ZN10PaintEvent12f_PAINT_LASTEv",
            "__ZN13PlayerManager18markBlockForUpdateE8BlockPos",
            "__ZN17GraphicsPrimitive11convertFromE4Blit11SurfaceDataiiiiS1_i",
            "__ZN6Unsafe14getIntVolatileE6Objectl",
            "__ZN22GlyphJustificationInfo21f_PRIORITY_WHITESPACEEv",
            "__ZN11SurfaceType6rgbForEi10ColorModel",
            "__ZN8Splitter10f_strategyEv",
            "__ZN11BasicStroke12getDashPhaseEv",
            "__ZN15CalendarBuilder3setEii",
            "__ZN21ConcurrentLinkedQueue3addE6Object",
            "__ZN24SunDropTargetContextPeer8f_dndLogEv",
            "__ZN11FieldWriter13f_symbolTableEv",
            "__ZN5Frame12f_CHOP_FRAMEEv",
            "__ZN21ChunkProviderSettings11f_dirtCountEv",
            "__ZN13SocketChannel4readE10ByteBuffer",
            "__ZN24ModuleDescriptor_Exports8f_sourceEv",
            "__ZN11ClassWriter16f_COMPUTE_FRAMESEv",
            "__ZN20StructureBoundingBox14intersectsWithEiiii",
            "__ZN8KeyEvent10f_VK_FINALEv",
            "__ZN11SurfaceData10f_compTextEv",
            "__ZN13ParsePosition13setErrorIndexEi",
            "__ZN4Long9parseLongE6String",
            "__ZN8KeyEvent9f_VK_UNDOEv",
            "__ZN4Gson24f_constructorConstructorEv",
            "__ZN8Provider17f_servicesChangedEv",
            "__ZN10BigDecimal12saturateLongEl",
            "__ZN9ZoneRules2ofE10ZoneOffsetS0_4ListS1_S1_",
            "__ZN13LocalDateTime12writeReplaceEv",
            "__ZN8Provider8entrySetEv",
            "__ZN7HashMap5cloneEv",
            "__ZN13SoundRegistry15f_soundRegistryEv",
            "__ZN5oatpp7network3tcp6server18ConnectionProvider17instantiateServerEv",
            "__ZN24SimpleClassTypeSignature8f_dollarEv",
            "__ZN15SecurityManager9checkReadE14FileDescriptor",
            "__ZN9ItemStack20onPlayerStoppedUsingE5World12EntityPlayeri",
            "__ZN38IScoreObjectiveCriteria_EnumRenderType16f_field_178801_cEv",
            "__Z12setupConsolev",
            "__ZN15MinecraftServer14getDisplayNameEv",
            "__ZN19EventDispatchThread14f_eventFiltersEv",
            "__ZN10ColorModel7getBlueEi",
            "__ZN13WorldProvider14getWorldBorderEv",
            "__ZN18EnumChatFormatting8f_YELLOWEv",
            "__ZN18ItemTransformVec3f9f_DEFAULTEv",
            "__ZN20S44PacketWorldBorder17f_warningDistanceEv",
            "__ZN14BiomeDecorator17f_randomGeneratorEv",
            "__ZN10BigDecimal26compareMagnitudeNormalizedEli10BigIntegeri",
            "__ZN20FocusTraversalPolicy18getComponentBeforeE9Container9Component",
            "__ZN7Toolkit11f_resourcesEv",
            "__ZN24ModuleDescriptor_Builder8packagesE3Set",
            "__ZN17S0FPacketSpawnMob11f_headPitchEv",
            "__ZN8KeyEvent11f_VK_DELETEEv",
            "__ZN24PageAttributes_MediaType8f_ISO_B8Ev",
            "__ZN5oatpp6parser5Caret14StateSaveGuard16getSavedPositionEv",
            "__ZN17LongHashMap_Entry5f_keyEv",
            "__ZN4Font8f_ITALICEv",
            "__ZN20S0EPacketSpawnObject3f_zEv",
            "__ZN18S21PacketChunkData9getChunkZEv",
            "__ZN10LocaleData9getBundleE6String6Locale",
            "__ZN7Pattern8newSliceE5arr_Iib",
            "__ZN18DirectMethodHandle9ftypeKindE5Class",
            "__ZN10Properties11getPropertyE6StringS0_",
            "__ZN13IsoChronology11resolveDateE3Map13ResolverStyle",
            "__ZN12PacketBuffer9readBytesE5arr_B",
            "__ZN13RenderManager17setRenderPositionEddd",
            "__ZN6Region8toStringEv",
            "__ZN12Path2D_Float14pointCrossingsEdd",
            "__ZN17MutableBigInteger6divideElS_",
            "__ZN9Throwable23printEnclosedStackTraceE29Throwable_PrintStreamOrWriter27StackTraceElement_interface6StringS2_3Set",
            "__ZN13AtomicBoolean18f_serialVersionUIDEv",
            "__ZN24PageAttributes_MediaType8f_ISO_B0Ev",
            "__ZN5oatpp5async6Action22createWaitRepeatActionEx",
            "__ZN13Configuration19f_allConfigurationsEv",
            "__ZN12MethodWriter14visitAttributeE9Attribute",
            "__ZN13MenuComponent22constructComponentNameEv",
            "__ZN6String17isNotContinuationEi",
            "__ZN9Component26f_hierarchyBoundsListenerKEv",
            "__ZN9Extension7f_valueEv",
            "__ZN12BaseCalendar13getYearLengthE12CalendarDate",
            "__ZN11CharMatcher12withToStringE6String",
            "__ZN5Event7initIDsEv",
            "__ZN7Boolean7valueOfE6String",
            "__ZN17VillageCollection23f_villagerPositionsListEv",
            "__ZN11SurfaceType9f_IntRgbxEv",
            "__ZN21SerialCallbackContext6f_descEv",
            "__ZN7Matcher10f_NOANCHOREv",
            "__ZN10BigInteger8bitCountEv",
            "__ZN13SoundCategory17f_ID_CATEGORY_MAPEv",
            "__ZN7Pattern10f_MAX_REPSEv",
            "__ZN10LambdaForm19f_invocationCounterEv",
            "__ZN20S0EPacketSpawnObject4getYEv",
            "__ZN6String20nonSyncContentEqualsE21AbstractStringBuilder",
            "__ZN6Unsafe10copyMemoryElll",
            "__ZN8Calendar15getCalendarTypeEv",
            "__ZN13DecimalFormat23getMinimumIntegerDigitsEv",
            "__ZN6Source9f_channelEv",
            "__ZN20S0CPacketSpawnPlayer10f_playerIdEv",
            "__ZN10ColorModel8finalizeEv",
            "__ZN4Item8onUpdateE9ItemStack5World6Entityib",
            "__ZN10DataFlavor22getRepresentationClassEv",
            "__ZN9LocalTime11toNanoOfDayEv",
            "__ZN15MinecraftServer28isCallingFromMinecraftThreadEv",
            "__ZN7Charset10f_aliasSetEv",
            "__ZN13PlayerManager18f_playerViewRadiusEv",
            "__ZN12ConstantPool11getFieldAt0E6Objecti",
            "__ZN12BiomeGenBase27f_spawnableCaveCreatureListEv",
            "__ZN13EntityTracker24removePlayerFromTrackersE14EntityPlayerMP",
            "__ZN17ObjectInputStream12checkResolveE6Object",
            "__ZN22ReentrantReadWriteLock14getQueueLengthEv",
            "__ZN16LambdaFormBuffer7inTransEv",
            "__ZN11SoundSystem23CommandFeedRawAudioDataE6String5arr_B",
            "__ZN7Boolean8hashCodeEb",
            "__ZN6Entity17resetPositionToBBEv",
            "__ZN6Entity4killEv",
            "__ZN9Component14coalesceEventsE8AWTEventS0_",
            "__ZN16URLStreamHandler14getDefaultPortEv",
            "__ZN20EnumPlayerModelParts9getPartIdEv",
            "__ZN7Integer17toUnsignedString0Eii",
            "__ZN25ModuleDescriptor_Requires6f_nameEv",
            "__ZN5Month5rangeE13TemporalField",
            "__ZN12PotionEffect12getAmplifierEv",
            "__ZN18BufferCapabilities10f_backCapsEv",
            "__ZN6Path2D12f_SEG_MOVETOEv",
            "__ZN14EntityPlayerSP17setPlayerSPHealthEf",
            "__ZN14ResolvedModule8toStringEv",
            "__ZN6Unsafe22weakCompareAndSetFloatE6Objectlff",
            "__ZN16ProtectionDomain20f_filePermCompatInPDEv",
            "__ZN39BlockModelRenderer_AmbientOcclusionFace22updateVertexBrightnessE12IBlockAccess5Block8BlockPos10EnumFacing5arr_F6BitSet",
            "__ZN6Window23processWindowStateEventE11WindowEvent",
            "__ZN13Authenticator29requestPasswordAuthenticationES_6String11InetAddressiS0_S0_S0_3URL27Authenticator_RequestorType",
            "__ZN11DataWatcher13func_111144_eEv",
            "__ZN18ScopedMemoryAccess15putByteInternalE24ScopedMemoryAccess_Scope6Objectlh",
            "__ZN18S21PacketChunkData15writePacketDataE12PacketBuffer",
            "__ZN15IdentityHashMap18f_MINIMUM_CAPACITYEv",
            "__ZN11InputStream4readE5arr_B",
            "__ZN19EnumEnchantmentType8f_DIGGEREv",
            "__ZN17ObjectStreamClass18setPrimFieldValuesE6Object5arr_B",
            "__ZN20PlatformLogger_Level7valueOfEi",
            "__ZN11EntityHorse10setChestedEb",
            "__ZN12DamageSource12isFireDamageEv",
            "__ZN23S1CPacketEntityMetadata11getEntityIdEv",
            "__ZN11PrintStream14requireNonNullE6Object6String",
            "__ZN13ReentrantLock7tryLockEl8TimeUnit",
            "__ZN29BoundMethodHandle_SpeciesData30deriveTransformHelperArgumentsE10MemberNamei4ListS1_",
            "__ZN12CalendarDate9setLocaleE6Locale",
            "__ZN15EntityItemFrame26setDisplayedItemWithUpdateE9ItemStackb",
            "__ZN9Character7f_valueEv",
            "__ZN9GuiButton13getHoverStateEb",
            "__ZN11ShortBuffer5limitEi",
            "__ZN13BufferedImage18f_DCM_565_GRN_MASKEv",
            "__ZN9Component25addPropertyChangeListenerE6String22PropertyChangeListener",
            "__ZN7TreeMap7forEachE10BiConsumer",
            "__ZN5World20getBiomeGenForCoordsE8BlockPos",
            "__ZN10TimerQueue7f_queueEv",
            "__ZN15ScorePlayerTeam12func_98298_aEi",
            "__ZN7ByteBuf12writeBooleanEb",
            "__ZN14DatagramPacket9setLengthEi",
            "__ZN15MinecraftServer30isAnnouncingPlayerAchievementsEv",
            "__ZN14DatagramPacket9getLengthEv",
            "__ZN15MinecraftServer20getCurrentTimeMillisEv",
            "__ZN17NetworkPlayerInfo13f_displayNameEv",
            "__ZN5Timer8f_threadEv",
            "__ZN15MinecraftServer18getCanSpawnAnimalsEv",
            "__ZN20DecimalFormatSymbols11getInstanceEv",
            "__ZN16SurfaceDataProxy16f_cachingAllowedEv",
            "__ZN5Color6darkerEv",
            "__ZN12Path2D_Float8getPointEi",
            "__ZN9Minecraft13updateDisplayEv",
            "__ZN13MethodVisitor15visitMethodInsnEi6StringS0_S0_b",
            "__ZN6Unsafe8putShortE6Objectls",
            "__ZN20NetHandlerPlayClient17f_guiScreenServerEv",
            "__ZN5oatpp4data7mapping4type4TypeC1ERKNS2_7ClassIdERKNS3_4InfoE",
            "__ZN5Event6f_DOWNEv",
            "__ZN10LongBuffer3putEiS_ii",
            "__ZN10MemberName12getSignatureEv",
            "__ZN12NumberFormat23f_serialVersionOnStreamEv",
            "__ZN32C10PacketCreativeInventoryAction13processPacketE21INetHandlerPlayServer",
            "__ZN18ScopedMemoryAccess36getAndBitwiseXorShortAcquireInternalE24ScopedMemoryAccess_Scope6Objectls",
            "__ZN10BigDecimal12toBigIntegerEv",
            "__ZN26BlockFlower_EnumFlowerType13f_OXEYE_DAISYEv",
            "__ZN31ReentrantReadWriteLock_ReadLock7tryLockEl8TimeUnit",
            "__ZN10LongBuffer4markEv",
            "__ZN11ModuleLayer9f_parentsEv",
            "__ZN5Field10getFactoryEv",
            "__ZN21ChunkProviderSettings17f_gravelMaxHeightEv",
            "__ZN8MimeType13writeExternalE12ObjectOutput",
            "__ZN18ItemInWorldManager16f_curblockDamageEv",
            "__ZN16GraphicAttribute10getOutlineE15AffineTransform",
            "__ZN6Parsed14resolveInstantEv",
            "__ZN7Library17getAllSourcenamesEv",
            "__ZN17ObjectInputStream10readStringEb",
            "__ZN21AbstractStringBuilder9initBytesE5arr_Cii",
            "__ZN14PageAttributes20setPrinterResolutionEi",
            "__ZN5Color6getRedEv",
            "__ZN10OffsetTime9ofInstantE7Instant6ZoneId",
            "__ZN13WorldRenderer5resetEv",
            "__ZN9ItemStack7setItemE4Item",
            "__ZN10BigDecimal8subtractES_11MathContext",
            "__ZN17VillageCollection4tickEv",
            "__ZN9Rectangle3addES_",
            "__ZN18PlayerCapabilities15f_disableDamageEv",
            "__ZN26S42PacketCombatEvent_Event14f_ENTER_COMBATEv",
            "__ZNK5oatpp3web8protocol4http8incoming7Request10getHeadersEv",
            "__ZN10JsonWriter9endObjectEv",
            "__ZN18DirectMethodHandle17ensureInitializedEv",
            "__ZN10AtomicLong16getAndAccumulateEl18LongBinaryOperator",
            "__ZN9Minecraft16f_entityRendererEv",
            "__ZN10BigDecimal6divideES_i12RoundingMode",
            "__ZN13EntityAgeable11f_ageHeightEv",
            "__ZN6Buffer9f_addressEv",
            "__ZN9Hashtable11f_thresholdEv",
            "__ZN11TextHitInfo13isLeadingEdgeEv",
            "__ZN11SurfaceType5f_AnyEv",
            "__ZN18ObjectOutputStream15writeTypeStringE6String",
            "__ZN23ResourceBundle_CacheKey8f_formatEv",
            "__ZN17DateTimeFormatter11localizedByE6Locale",
            "__ZN22C17PacketCustomPayload15writePacketDataE12PacketBuffer",
            "__ZN8Wildcard6acceptE15TypeTreeVisitor",
            "__ZN7Pattern9f_LITERALEv",
            "__ZN14EntityPlayerMP13func_175145_aE8StatBase",
            "__ZN12BiomeGenBase10f_rainfallEv",
            "__ZN15InventoryPlayer13getFieldCountEv",
            "__ZN6String14codePointCountEii",
            "__ZN10ColorSpace11f_TYPE_3CLREv",
            "__ZN13WorldRenderer16f_field_181676_cEv",
            "__ZN23ThreadDownloadImageData11loadTextureE16IResourceManager",
            "__ZN11SurfaceData14getSurfaceTypeEv",
            "__ZN8CallSite15getTargetOffsetEv",
            "__ZN15GuiOverlayDebug14f_fontRendererEv",
            "__ZN8LockCode6f_lockEv",
            "__ZN11ClassReader24readParameterAnnotationsE13MethodVisitor7Contextib",
            "__ZN4File9getParentEv",
            "__ZN11ShortBuffer3getEi",
            "__ZN9Hashtable10readObjectE17ObjectInputStream",
            "__ZN29ObjectInputStream_HandleTable11f_STATUS_OKEv",
            "__ZN9GuiScreen8keyTypedEci",
            "__ZN12PacketBuffer9readFloatEv",
            "__ZN10ZoneOffset18f_serialVersionUIDEv",
            "__ZN14BufferedWriter5closeEv",
            "__ZN12Thread_State9f_BLOCKEDEv",
            "__ZN15MinecraftServer11getGameTypeEv",
            "__ZN16EntityLivingBase14handleJumpLavaEv",
            "__ZN14FontStrikeDesc8f_aaHintEv",
            "__ZN24ClassValue_ClassValueMap9sizeCacheEi",
            "__ZN28S3BPacketScoreboardObjective15f_objectiveNameEv",
            "__ZN5World24getLightFromNeighborsForE12EnumSkyBlock8BlockPos",
            "__ZN17AttributeModifier7isSavedEv",
            "__ZN16AnnotationWriter10visitArrayE6String",
            "__ZN11SoundSystem22interruptCommandThreadEv",
            "__ZN17CharToGlyphMapper20charToVariationGlyphEii",
            "__ZN6Font2D14getBaselineForEc",
            "__ZN12EntityPlayer14clearItemInUseEv",
            "__ZN23ThreadDownloadImageData23f_threadDownloadCounterEv",
            "__ZN15VillageDoorInfo13func_179849_aEi",
            "__ZN5oatpp6parser4json7mapping12Deserializer9skipValueERNS0_5CaretE",
            "__ZN9GuiIngame24f_prevVignetteBrightnessEv",
            "__ZN10BaseLocale21f_TRADITIONAL_CHINESEEv",
            "__ZN6Writer5writeE5arr_Cii",
            "__ZN18AccessibleRelation21f_LABELED_BY_PROPERTYEv",
            "__ZN12ValidatePipe8drawLineE13SunGraphics2Diiii",
            "__ZN4Slot10onCraftingE9ItemStack",
            "__ZN12BiomeGenBase8decorateE5World6Random8BlockPos",
            "__ZN18EnumChatFormatting6f_AQUAEv",
            "__ZN18ScopedMemoryAccess28getAndAddLongReleaseInternalE24ScopedMemoryAccess_Scope6Objectll",
            "__ZN14ComponentEvent11paramStringEv",
            "__ZN17GraphicsPrimitive10f_traceMapEv",
            "__ZN31EntityPlayer_EnumChatVisibility17getChatVisibilityEv",
            "__ZN7Context16f_parsingOptionsEv",
            "__ZN8TimeUnit9f_SECONDSEv",
            "__ZN12CalendarDate9f_secondsEv",
            "__ZN16SimpleDateFormat19f_MILLIS_PER_MINUTEEv",
            "__ZN8Invokers23checkVarHandleExactTypeE9VarHandle26VarHandle_AccessDescriptor",
            "__ZN19NumericShaper_Range7inRangeEi",
            "__ZN9ArrayList12listIteratorEv",
            "__ZN9Hashtable5mergeE6ObjectS0_10BiFunction",
            "__ZN6Unsafe21getAndSetShortAcquireE6Objectls",
            "__ZN25PageAttributes_OriginType13f_I_PRINTABLEEv",
            "__ZN17DateTimeFormatter15f_ISO_WEEK_DATEEv",
            "__ZN24ClassSpecializer_Factory11loadSpeciesE28ClassSpecializer_SpeciesData",
            "__ZN16ResourceLocation8toStringEv",
            "__ZN11JsonElement18getAsJsonPrimitiveEv",
            "__ZN19S2DPacketOpenWindow13processPacketE21INetHandlerPlayClient",
            "__ZN14MethodTypeForm15f_LF_INVSPECIALEv",
            "__ZN16SimpleDateFormat9toPatternEv",
            "__ZN11ModuleLayer13f_EMPTY_LAYEREv",
            "__ZN11RenderChunk16f_field_181056_jEv",
            "__ZN20GameSettings_Options13f_STREAM_KBPSEv",
            "__ZN14RenderingHints5cloneEv",
            "__ZN6Thread4joinEv",
            "__ZN11PrintStream7printlnEi",
            "__ZN12BaseCalendar20getYearFromFixedDateEl",
            "__ZN12ModuleWriter17f_moduleNameIndexEv",
            "__ZN9JsonToken6f_NAMEEv",
            "__ZN8Excluder11withVersionEd",
            "__ZN11CharMatcher14f_SINGLE_WIDTHEv",
            "__ZN12EntityPlayer7onDeathE12DamageSource",
            "__ZN5oatpp4data6stream18BufferOutputStream12getSubstringEll",
            "__ZN20RendererLivingEntity12rotateCorpseE16EntityLivingBasefff",
            "__ZN14NetworkManager12hasNoChannelEv",
            "__ZN8Material11f_dragonEggEv",
